(dp0
S'Test Scenarios'
p1
(lp2
S'maymay'
p3
aS'babyface168'
p4
aS'sdgun'
p5
aS'nirmalrock'
p6
asS'Assembly'
p7
(lp8
S'subchap'
p9
aS'cmax'
p10
asS'Specification'
p11
(lp12
S'BLE'
p13
aS'winterflame'
p14
asS'Conceptualization'
p15
(lp16
S'rom_coder'
p17
aS'hamdanil'
p18
aS'rainforest'
p19
asS'UI Prototype'
p20
(lp21
S'666462'
p22
aS'babyfox'
p23
aS'111222'
p24
aS'billthu'
p25
asS'Architecture'
p26
(lp27
S'subchap'
p28
aS'argolite'
p29
as.