(dp0
S'Development'
p1
(lp2
S'ManS'
p3
aS'azukun'
p4
asS'Test Scenarios'
p5
(lp6
S'maymay'
p7
aS'babyface168'
p8
aS'lxj09'
p9
asS'Assembly'
p10
(lp11
S'Yeung'
p12
asS'Specification'
p13
(lp14
S'BLE'
p15
aS'winterflame'
p16
asS'Conceptualization'
p17
(lp18
S'Indemar'
p19
aS'iSpartan'
p20
asS'UI Prototype'
p21
(lp22
S'trueshlqsh'
p23
aS'sin_hu'
p24
asS'Design'
p25
(lp26
S'AleaActaEst'
p27
asS'Architecture'
p28
(lp29
S'nikolay83'
p30
aS'gevak'
p31
as.