(dp0
S'Development'
p1
(lp2
S'mashuper'
p3
aS'congzb'
p4
aS'Simon_Leung'
p5
asS'Assembly'
p6
(lp7
S'live_world'
p8
asS'Specification'
p9
(lp10
S'MiG-29'
p11
asS'Conceptualization'
p12
(lp13
S'MiG-29'
p14
aS'ranjancsharma'
p15
asS'Design'
p16
(lp17
S'Xuchen'
p18
aS'Urmass'
p19
asS'Architecture'
p20
(lp21
S'argolite'
p22
asS'Test Suites'
p23
(lp24
S'lxj09'
p25
as.