(dp0
S'Development'
p1
(lp2
S'Mooglepuff'
p3
aS'gjw99'
p4
aS'web_master'
p5
asS'Assembly'
p6
(lp7
S'rainday'
p8
asS'Test Suites'
p9
(lp10
S'gjw99'
p11
aS'utlovey'
p12
asS'Design'
p13
(lp14
S'Cagi'
p15
aS'gevak'
p16
aS'urtks'
p17
aS'AleaActaEst'
p18
aS'zsudraco'
p19
aS'caru'
p20
aS'velraman'
p21
asS'Architecture'
p22
(lp23
S'zsudraco'
p24
aS'AleaActaEst'
p25
as.