(dp0
S'Development'
p1
(lp2
S'wanxqc'
p3
aS'azukun'
p4
aS'rolian'
p5
aS'Amith'
p6
asS'Test Scenarios'
p7
(lp8
S'codercola'
p9
asS'Assembly'
p10
(lp11
S'Yeung'
p12
asS'Specification'
p13
(lp14
S'MiG-29'
p15
aS'BLE'
p16
asS'UI Prototype'
p17
(lp18
S'AjJi'
p19
aS'mattbradley'
p20
aS'rtriv'
p21
aS'andresduque'
p22
aS'Jooc'
p23
aS'yuest'
p24
asS'Design'
p25
(lp26
S'moonli'
p27
asS'Architecture'
p28
(lp29
S'BLE'
p30
asS'Test Suites'
p31
(lp32
S'gjw99'
p33
aS'Yeung'
p34
as.