(dp0
S'Development'
p1
(lp2
S'ReDreamport'
p3
aS'dljg718'
p4
aS'ChenXiaoTemp'
p5
asS'Test Scenarios'
p6
(lp7
S'maymay'
p8
asS'Assembly'
p9
(lp10
S'j3_guile'
p11
asS'Specification'
p12
(lp13
S'BLE'
p14
aS'awtar'
p15
aS'cxinice'
p16
asS'UI Prototype'
p17
(lp18
S'yaoyaorachel'
p19
asS'Design'
p20
(lp21
S'argolite'
p22
asS'Architecture'
p23
(lp24
S'argolite'
p25
aS'AE-86'
p26
as.