(dp0
S'Development'
p1
(lp2
S'dcp'
p3
aS'CrazyGun'
p4
asS'Assembly'
p5
(lp6
S'Yeung'
p7
asS'Specification'
p8
(lp9
S'MiG-29'
p10
asS'Conceptualization'
p11
(lp12
S'MiG-29'
p13
aS'AleaActaEst'
p14
aS'marchon'
p15
asS'UI Prototype'
p16
(lp17
S'YeGGo'
p18
asS'Design'
p19
(lp20
S'argolite'
p21
aS'viviz'
p22
aS'Mozgastik'
p23
asS'Architecture'
p24
(lp25
S'AleaActaEst'
p26
aS'saevio'
p27
aS'Kobe24'
p28
asS'Test Suites'
p29
(lp30
S'gjw99'
p31
aS'BLE'
p32
aS'iRabbit'
p33
as.