(dp0
S'Test Scenarios'
p1
(lp2
S'winterflame'
p3
aS'maymay'
p4
aS'ShindouHikaru'
p5
aS'summergrass'
p6
aS'norrista'
p7
asS'Assembly'
p8
(lp9
S'stevenfrog'
p10
aS'gmagniez'
p11
aS'bannie2492'
p12
asS'Specification'
p13
(lp14
S'codedoc'
p15
aS'Brightspring'
p16
aS'gvir'
p17
asS'UI Prototype'
p18
(lp19
S'moulyg'
p20
asS'Architecture'
p21
(lp22
S'zsudraco'
p23
aS'paolog'
p24
aS'albertwang'
p25
asS'Content Creation'
p26
(lp27
S'ShindouHikaru'
p28
aS'winterflame'
p29
aS'mawueli'
p30
as.