(dp0
S'Test Scenarios'
p1
(lp2
S'maymay'
p3
aS'monumahiya'
p4
asS'Assembly'
p5
(lp6
S'KennyAlive'
p7
aS'seeef'
p8
aS'jpy'
p9
asS'Specification'
p10
(lp11
S'Seamlyit'
p12
aS'BLE'
p13
aS'babyface168'
p14
aS'Kuhan'
p15
asS'Conceptualization'
p16
(lp17
S'Indemar'
p18
aS'mastraho'
p19
asS'Architecture'
p20
(lp21
S'vangavroche'
p22
asS'Test Suites'
p23
(lp24
S'gjw99'
p25
as.