(dp0
S'Development'
p1
(lp2
S'myxgyy'
p3
aS'romanoTC'
p4
aS'Hacker_QC'
p5
aS'EveningSun'
p6
aS'morehappiness'
p7
asS'Assembly'
p8
(lp9
S'vilain'
p10
aS'Orange_Cloud'
p11
aS'Shorty'
p12
asS'Specification'
p13
(lp14
S'MiG-29'
p15
aS'AleaActaEst'
p16
aS'argolite'
p17
asS'Design'
p18
(lp19
S'nicka81'
p20
aS'wang_liang'
p21
aS'linwe'
p22
asS'Architecture'
p23
(lp24
S'Ghostar'
p25
aS'AleaActaEst'
p26
asS'Test Suites'
p27
(lp28
S'sb99'
p29
aS'cartooncat'
p30
aS'rajwirock'
p31
as.