(dp0
S'Development'
p1
(lp2
S'sparemax'
p3
aS'LazyChild'
p4
aS'sakar2003'
p5
asS'Test Scenarios'
p6
(lp7
S'kranthikumar'
p8
aS'kaygee'
p9
aS'sarvmix'
p10
aS'maymay'
p11
aS'sdgun'
p12
asS'Assembly'
p13
(lp14
S'Standlove'
p15
asS'Specification'
p16
(lp17
S'Indemar'
p18
aS'BLE'
p19
aS'utester'
p20
asS'UI Prototype'
p21
(lp22
S'AlexHuang'
p23
aS'babyfox'
p24
asS'Design'
p25
(lp26
S'saarixx'
p27
aS'woodjhon'
p28
asS'Architecture'
p29
(lp30
S'gevak'
p31
aS'kurtrips'
p32
as.