(dp0
S'Development'
p1
(lp2
S'BeBetter'
p3
asS'Specification'
p4
(lp5
S'sampath01'
p6
aS'Foxzilla'
p7
asS'Design'
p8
(lp9
S'argolite'
p10
aS'AleaActaEst'
p11
aS'winstips'
p12
asS'Architecture'
p13
(lp14
S'winstips'
p15
aS'argolite'
p16
as.