(dp0
S'UI Prototype'
p1
(lp2
S'YiiBryan'
p3
aS'hi4sandy'
p4
aS'kharm'
p5
asS'Conceptualization'
p6
(lp7
S'mastraho'
p8
aS'ShindouHikaru'
p9
asS'Assembly'
p10
(lp11
S'vvvpig'
p12
asS'Architecture'
p13
(lp14
S'LOY'
p15
aS'MiG-29'
p16
aS'DanLazar'
p17
as.