(dp0
S'Development'
p1
(lp2
S'sanitarium88'
p3
asS'Test Scenarios'
p4
(lp5
S'liumei'
p6
aS'gabyja'
p7
asS'Assembly'
p8
(lp9
S'Rkt119'
p10
asS'Specification'
p11
(lp12
S'MiG-29'
p13
aS'BLE'
p14
asS'UI Prototype'
p15
(lp16
S'dfn'
p17
aS'virose'
p18
asS'Design'
p19
(lp20
S'argolite'
p21
asS'Architecture'
p22
(lp23
S'vangavroche'
p24
aS'argolite'
p25
as.