(dp0
S'Test Scenarios'
p1
(lp2
S'maymay'
p3
aS'chillyC'
p4
aS'ManS'
p5
asS'Assembly'
p6
(lp7
S'vvvpig'
p8
asS'Specification'
p9
(lp10
S'BLE'
p11
aS'winterflame'
p12
asS'Conceptualization'
p13
(lp14
S'Indemar'
p15
asS'UI Prototype'
p16
(lp17
S'sin_hu'
p18
aS'hi4sandy'
p19
asS'Architecture'
p20
(lp21
S'argolite'
p22
aS'AleaActaEst'
p23
as.