(dp0
S'Specification'
p1
(lp2
S'BLE'
p3
aS'14blades'
p4
asS'Conceptualization'
p5
(lp6
S'iSpartan'
p7
aS'Nabawy'
p8
asS'Assembly'
p9
(lp10
S'j3_guile'
p11
asS'Architecture'
p12
(lp13
S'vangavroche'
p14
asS'Content Creation'
p15
(lp16
S'AleaActaEst'
p17
aS'mastraho'
p18
aS'kaygee'
p19
aS'gabyja'
p20
as.