(dp0
S'Test Scenarios'
p1
(lp2
S'nirmalrock'
p3
aS'winterflame'
p4
aS'Brightspring'
p5
asS'Assembly'
p6
(lp7
S'seeef'
p8
aS'Sky_'
p9
aS'gjw99'
p10
aS'spanhawk'
p11
asS'Specification'
p12
(lp13
S'winterflame'
p14
aS'rom_coder'
p15
aS'babyface168'
p16
asS'Conceptualization'
p17
(lp18
S'MiG-29'
p19
aS'candrei'
p20
aS'tardislvr'
p21
asS'UI Prototype'
p22
(lp23
S'babyfox'
p24
aS'sin_hu'
p25
aS'besabestin'
p26
asS'Architecture'
p27
(lp28
S'albertwang'
p29
aS'mastraho'
p30
as.