(dp0
S'Development'
p1
(lp2
S'akinwale'
p3
aS'YeGGo'
p4
asS'Test Scenarios'
p5
(lp6
S'Brightspring'
p7
aS'winterflame'
p8
asS'Assembly'
p9
(lp10
S'Sky_'
p11
asS'UI Prototype'
p12
(lp13
S'sky_cn'
p14
aS'ksladkov'
p15
aS'soso0574'
p16
aS'Colinh84'
p17
asS'Design'
p18
(lp19
S'moonli'
p20
asS'Architecture'
p21
(lp22
S'gevak'
p23
as.