(dp0
S'Development'
p1
(lp2
S'lxj09'
p3
aS'zaefscx'
p4
aS'phead'
p5
asS'Specification'
p6
(lp7
S'BLE'
p8
aS'winterflame'
p9
asS'Design'
p10
(lp11
S'moonli'
p12
asS'Architecture'
p13
(lp14
S'codercola'
p15
aS'vangavroche'
p16
aS'AleaActaEst'
p17
as.