(dp0
S'Development'
p1
(lp2
S'sangharsh'
p3
aS'jackchongs'
p4
asS'Assembly'
p5
(lp6
S'gondzo'
p7
asS'Specification'
p8
(lp9
S'BLE'
p10
aS'winterflame'
p11
asS'Conceptualization'
p12
(lp13
S'DanLazar'
p14
aS'hamdanil'
p15
aS'sri02'
p16
asS'Design'
p17
(lp18
S'faeton'
p19
asS'Architecture'
p20
(lp21
S'paolog'
p22
aS'faeton'
p23
as.