(dp0
S'Development'
p1
(lp2
S'sokol'
p3
aS'gets0ul'
p4
aS'victorsam'
p5
aS'gentva'
p6
aS'itkankan'
p7
aS'urtks'
p8
aS'lxj09'
p9
asS'Assembly'
p10
(lp11
S'isugarly'
p12
asS'Conceptualization'
p13
(lp14
S'MiG-29'
p15
aS'iogy'
p16
aS'AleaActaEst'
p17
asS'Design'
p18
(lp19
S'woodjhon'
p20
aS'maksimilian'
p21
aS'kurtrips'
p22
aS'fivestarwy'
p23
asS'Architecture'
p24
(lp25
S'argolite'
p26
aS'AleaActaEst'
p27
as.