(dp0
S'Development'
p1
(lp2
S'EveningSun'
p3
aS'sparemax'
p4
asS'Assembly'
p5
(lp6
S'live_world'
p7
asS'Specification'
p8
(lp9
S'hello-c'
p10
aS'codercola'
p11
aS'MiG-29'
p12
asS'UI Prototype'
p13
(lp14
S'googlesmkm'
p15
aS'Loger'
p16
asS'Design'
p17
(lp18
S'lava.cloud'
p19
aS'argolite'
p20
aS'gevak'
p21
aS'DanLazar'
p22
asS'Architecture'
p23
(lp24
S'volt'
p25
aS'codercola'
p26
as.