(dp0
S'Development'
p1
(lp2
S'ben.lv'
p3
aS'wanxqc'
p4
aS'ernestobf'
p5
aS'verycai'
p6
aS'iRabbit'
p7
asS'Assembly'
p8
(lp9
S'TAG'
p10
aS'will.xie'
p11
asS'Specification'
p12
(lp13
S'MiG-29'
p14
asS'Design'
p15
(lp16
S'caru'
p17
aS'bramandia'
p18
aS'woodjhon'
p19
aS'flytoj2ee'
p20
asS'Architecture'
p21
(lp22
S'saevio'
p23
aS'DanLazar'
p24
aS'Standlove'
p25
asS'Test Suites'
p26
(lp27
S'onsky'
p28
aS'HumbleSunflower'
p29
as.