(dp0
S'Development'
p1
(lp2
S'harshasanghi'
p3
asS'Assembly'
p4
(lp5
S'nico_vui'
p6
aS'harshasanghi'
p7
asS'Specification'
p8
(lp9
S'BLE'
p10
aS'winterflame'
p11
asS'Design'
p12
(lp13
S'nikolay83'
p14
aS'dineshhere'
p15
aS'Sundeep.techie'
p16
asS'Architecture'
p17
(lp18
S'gevak'
p19
as.