(dp0
S'Development'
p1
(lp2
S'dljg718'
p3
asS'Assembly'
p4
(lp5
S'ahmed.seddiq'
p6
asS'Specification'
p7
(lp8
S'BLE'
p9
aS'winterflame'
p10
asS'Conceptualization'
p11
(lp12
S'iSpartan'
p13
aS'sukhoi-30'
p14
asS'UI Prototype'
p15
(lp16
S'moulyg'
p17
asS'Design'
p18
(lp19
S'ahmed.seddiq'
p20
asS'Architecture'
p21
(lp22
S'vangavroche'
p23
aS'AleaActaEst'
p24
as.