(dp0
S'Development'
p1
(lp2
S'romanoTC'
p3
asS'Assembly'
p4
(lp5
S'pinoydream'
p6
asS'Design'
p7
(lp8
S'iogy'
p9
asS'Architecture'
p10
(lp11
S'Rica'
p12
asS'UI Prototype'
p13
(lp14
S'quesks'
p15
aS'Jooc'
p16
as.