(dp0
S'UI Prototype'
p1
(lp2
S'YiiBryan'
p3
aS'cubic_a'
p4
aS'dileepa'
p5
aS'babyfox'
p6
aS'virose'
p7
asS'Content Creation'
p8
(lp9
S'agus.mw'
p10
aS'galeri'
p11
aS'codedoc'
p12
aS'Lozy'
p13
aS'tongkunvwang'
p14
asS'Assembly'
p15
(lp16
S'yedtoss'
p17
aS'seeef'
p18
asS'Architecture'
p19
(lp20
S'argolite'
p21
aS'albertwang'
p22
as.