(dp0
S'Development'
p1
(lp2
S'zaixiang'
p3
aS'NightWolf'
p4
asS'Test Scenarios'
p5
(lp6
S'winterflame'
p7
aS'BLE'
p8
aS'liumei'
p9
asS'Assembly'
p10
(lp11
S'Yeung'
p12
asS'Specification'
p13
(lp14
S'iogy'
p15
aS'winterflame'
p16
aS'sukhoi-30'
p17
asS'Design'
p18
(lp19
S'saarixx'
p20
aS'dfn'
p21
aS'BLE'
p22
aS'argolite'
p23
asS'Architecture'
p24
(lp25
S'BLE'
p26
aS'argolite'
p27
aS'mekanizumu'
p28
aS'sampath01'
p29
as.