(dp0
S'Development'
p1
(lp2
S'mapeisheng'
p3
aS'ChenXiaoTemp'
p4
asS'Assembly'
p5
(lp6
S'duxiaoyang'
p7
asS'Design'
p8
(lp9
S'argolite'
p10
asS'Architecture'
p11
(lp12
S'Luca'
p13
aS'kurtrips'
p14
aS'argolite'
p15
as.