(dp0
S'Test Suites'
p1
(lp2
S'gjw99'
p3
asS'Development'
p4
(lp5
S'yext'
p6
asS'Specification'
p7
(lp8
S'MiG-29'
p9
aS'DanLazar'
p10
asS'Design'
p11
(lp12
S'Standlove'
p13
aS'argolite'
p14
asS'Architecture'
p15
(lp16
S'abkqz'
p17
as.