(dp0
S'Development'
p1
(lp2
S'elkhawajah'
p3
asS'Assembly'
p4
(lp5
S'Yeung'
p6
asS'Specification'
p7
(lp8
S'DanLazar'
p9
aS'sukhoi-30'
p10
asS'Design'
p11
(lp12
S'winstips'
p13
aS'Standlove'
p14
asS'Architecture'
p15
(lp16
S'argolite'
p17
aS'AleaActaEst'
p18
asS'Test Suites'
p19
(lp20
S'hello-c'
p21
aS'winterflame'
p22
aS'QASH'
p23
as.