(dp0
S'UI Prototype'
p1
(lp2
S'soso0574'
p3
aS'hi4sandy'
p4
aS'sky_cn'
p5
aS'dileepa'
p6
asS'Specification'
p7
(lp8
S'MiG-29'
p9
aS'BLE'
p10
asS'Conceptualization'
p11
(lp12
S'hamdanil'
p13
aS'BLE'
p14
asS'Assembly'
p15
(lp16
S'flatter'
p17
aS'deepsolo9'
p18
asS'Architecture'
p19
(lp20
S'kurtrips'
p21
as.