(dp0
S'UI Prototype'
p1
(lp2
S'billthu'
p3
aS'hi4sandy'
p4
aS'mohhasbias'
p5
asS'Assembly'
p6
(lp7
S'lbotsch'
p8
aS'Sky_'
p9
asS'Conceptualization'
p10
(lp11
S'iSpartan'
p12
aS'dpebble'
p13
asS'Code'
p14
(lp15
S'jz10'
p16
aS'Guro.Bokum'
p17
aS'stevenfrog'
p18
aS'jan3594'
p19
asS'Architecture'
p20
(lp21
S'vangavroche'
p22
aS'zsudraco'
p23
as.