(dp0
S'Development'
p1
(lp2
S'CHX'
p3
aS'amazingpig'
p4
aS'arylio'
p5
asS'Conceptualization'
p6
(lp7
S'fedeg'
p8
asS'Design'
p9
(lp10
S'saarixx'
p11
aS'dfn'
p12
aS'argolite'
p13
asS'Architecture'
p14
(lp15
S'vangavroche'
p16
aS'AleaActaEst'
p17
as.