(dp0
S'UI Prototype'
p1
(lp2
S'hi4sandy'
p3
aS'babyfox'
p4
aS'moulyg'
p5
aS'666462'
p6
asS'Conceptualization'
p7
(lp8
S'iSpartan'
p9
aS'mastraho'
p10
aS'xkhaloda'
p11
asS'Assembly'
p12
(lp13
S'TrePe'
p14
asS'Architecture'
p15
(lp16
S'faeton'
p17
aS'zsudraco'
p18
as.