(dp0
S'UI Prototype'
p1
(lp2
S'soso0574'
p3
aS'pajdo'
p4
aS'rrr_guru'
p5
aS'rookieg'
p6
asS'Conceptualization'
p7
(lp8
S'MiG-29'
p9
aS'delight'
p10
aS'mennaya'
p11
asS'Assembly'
p12
(lp13
S'KennyAlive'
p14
aS'caoweiquan322'
p15
aS'yedtoss'
p16
asS'Architecture'
p17
(lp18
S'fivestarwy'
p19
as.