(dp0
S'UI Prototype'
p1
(lp2
S'babyfox'
p3
aS'YiiBryan'
p4
asS'Specification'
p5
(lp6
S'rom_coder'
p7
aS'BLE'
p8
asS'Test Scenarios'
p9
(lp10
S'maymay'
p11
aS'kshilpa'
p12
asS'Assembly'
p13
(lp14
S'arvind81983'
p15
aS'RaitoShum'
p16
asS'Architecture'
p17
(lp18
S'argolite'
p19
as.