(dp0
S'Development'
p1
(lp2
S'HumbleSunflower'
p3
aS'EveningSun'
p4
asS'Test Scenarios'
p5
(lp6
S'BLE'
p7
aS'winterflame'
p8
aS'lxj09'
p9
aS'liumei'
p10
aS'JackJack'
p11
asS'Assembly'
p12
(lp13
S'pirosl_tc'
p14
aS'jpy'
p15
asS'Specification'
p16
(lp17
S'BLE'
p18
aS'winterflame'
p19
asS'Design'
p20
(lp21
S'BLE'
p22
aS'Urmass'
p23
aS'flytoj2ee'
p24
asS'Architecture'
p25
(lp26
S'BLE'
p27
as.