(dp0
S'Development'
p1
(lp2
S'dcp'
p3
aS'azukun'
p4
asS'Assembly'
p5
(lp6
S'mohamede1945'
p7
asS'Specification'
p8
(lp9
S'MiG-29'
p10
aS'hpana'
p11
aS'sukhoi-30'
p12
asS'UI Prototype'
p13
(lp14
S'ChristinaLi'
p15
aS'jakev'
p16
aS'iversonLv'
p17
asS'Design'
p18
(lp19
S'moonli'
p20
aS'bramandia'
p21
asS'Architecture'
p22
(lp23
S'argolite'
p24
aS'BLE'
p25
aS'AleaActaEst'
p26
as.