(dp0
S'Assembly'
p1
(lp2
S'shen75'
p3
aS'flexme'
p4
asS'Specification'
p5
(lp6
S'fedeg'
p7
aS'BLE'
p8
aS'sukhoi-30'
p9
asS'Conceptualization'
p10
(lp11
S'picachui'
p12
aS'abkqz'
p13
aS'DanLazar'
p14
asS'RIA Build'
p15
(lp16
S'ChristinaLi'
p17
aS'sandaruwang'
p18
aS'MonicaMuranyi'
p19
asS'UI Prototype'
p20
(lp21
S'ChristinaLi'
p22
aS'babyfox'
p23
aS'yaoyaorachel'
p24
asS'Architecture'
p25
(lp26
S'tomaM'
p27
aS'the_best'
p28
as.