(dp0
S'Development'
p1
(lp2
S'fishhunter'
p3
aS'kangkangakak'
p4
aS'mayday'
p5
asS'Assembly'
p6
(lp7
S'isv'
p8
asS'Test Suites'
p9
(lp10
S'gjw99'
p11
asS'Design'
p12
(lp13
S'supratims'
p14
aS'Urmass'
p15
aS'argolite'
p16
asS'Architecture'
p17
(lp18
S'AleaActaEst'
p19
aS'the_best'
p20
as.