(dp0
S'Development'
p1
(lp2
S'utlovey'
p3
aS'myxgyy'
p4
aS'velorien'
p5
asS'Assembly'
p6
(lp7
S'cyberjag'
p8
asS'Specification'
p9
(lp10
S'MiG-29'
p11
aS'sukhoi-30'
p12
asS'Design'
p13
(lp14
S'saarixx'
p15
aS'FireIce'
p16
asS'Architecture'
p17
(lp18
S'argolite'
p19
asS'Test Suites'
p20
(lp21
S'gjw99'
p22
aS'iRabbit'
p23
as.