(dp0
S'Development'
p1
(lp2
S'vikasrohit'
p3
aS'YeGGo'
p4
aS'littleboss'
p5
asS'Test Scenarios'
p6
(lp7
S'gjw99'
p8
aS'priya.narayanan'
p9
aS'sare'
p10
asS'Assembly'
p11
(lp12
S'velorien'
p13
asS'Specification'
p14
(lp15
S'hpana'
p16
aS'wang_liang'
p17
asS'UI Prototype'
p18
(lp19
S'acsaga'
p20
aS'YeGGo'
p21
aS'rtriv'
p22
asS'Design'
p23
(lp24
S'moonli'
p25
aS'faeton'
p26
aS'St.Max'
p27
asS'Architecture'
p28
(lp29
S'Luca'
p30
aS'AleaActaEst'
p31
aS'the_best'
p32
aS'kurtrips'
p33
as.