(dp0
S'Development'
p1
(lp2
S'nothing.else'
p3
aS'Yeung'
p4
asS'Assembly'
p5
(lp6
S'Yeung'
p7
asS'Specification'
p8
(lp9
S'MiG-29'
p10
aS'tcpcoder'
p11
asS'Design'
p12
(lp13
S'argolite'
p14
aS'saarixx'
p15
aS'dfn'
p16
asS'Architecture'
p17
(lp18
S'argolite'
p19
aS'oldbam'
p20
aS'saevio'
p21
asS'Test Suites'
p22
(lp23
S'will.xie'
p24
as.