(dp0
S'Development'
p1
(lp2
S'azukun'
p3
aS'NightWolf'
p4
asS'Test Scenarios'
p5
(lp6
S'swimmer_suhan'
p7
aS'maymay'
p8
asS'Assembly'
p9
(lp10
S'shen75'
p11
aS'mln'
p12
asS'Conceptualization'
p13
(lp14
S'Indemar'
p15
aS'AleaActaEst'
p16
asS'UI Prototype'
p17
(lp18
S'hi4sandy'
p19
aS'yaoyaorachel'
p20
aS'dileepa'
p21
asS'Design'
p22
(lp23
S'NightWolf'
p24
aS'dfn'
p25
asS'Architecture'
p26
(lp27
S'albertwang'
p28
aS'arvind81983'
p29
aS'xiaoruby'
p30
as.