(dp0
S'Development'
p1
(lp2
S'sparemax'
p3
aS'hesibo'
p4
asS'Assembly'
p5
(lp6
S'GreatKevin'
p7
aS'gets0ul'
p8
aS'MonicaMuranyi'
p9
asS'Specification'
p10
(lp11
S'Veve'
p12
aS'winterflame'
p13
aS'ben.lv'
p14
asS'UI Prototype'
p15
(lp16
S'babyfox'
p17
aS'hi4sandy'
p18
aS'lintc'
p19
aS'sky_cn'
p20
aS'ctrl2'
p21
aS'trekforever'
p22
asS'Design'
p23
(lp24
S'LOY'
p25
aS'hesibo'
p26
aS'maksimilian'
p27
asS'Architecture'
p28
(lp29
S'zsudraco'
p30
as.