(dp0
S'Test Scenarios'
p1
(lp2
S'maymay'
p3
asS'Assembly'
p4
(lp5
S'duxiaoyang'
p6
asS'Specification'
p7
(lp8
S'BLE'
p9
aS'codercola'
p10
asS'Conceptualization'
p11
(lp12
S'fedeg'
p13
aS'AleaActaEst'
p14
asS'UI Prototype'
p15
(lp16
S'AjJi'
p17
aS'sunnysummer'
p18
asS'Architecture'
p19
(lp20
S'vangavroche'
p21
as.