(dp0
S'30015814'
p1
(lp2
S'.NET 3.5'
p3
aS'C#'
p4
aS'SQL Server 2008'
p5
aS'Windows Communication Foundation'
p6
aS'Windows Server'
p7
asS'30015815'
p8
(lp9
S'.NET 3.5'
p10
aS'C#'
p11
aS'SQL Server 2008'
p12
aS'Windows Communication Foundation'
p13
aS'Windows Server'
p14
asS'30015816'
p15
(lp16
S'.NET 3.5'
p17
aS'C#'
p18
aS'SQL Server 2008'
p19
aS'Windows Server'
p20
asS'30015817'
p21
(lp22
S'.NET 3.5'
p23
aS'C#'
p24
aS'SQL Server 2008'
p25
aS'Windows Server'
p26
asS'30015810'
p27
(lp28
S'.NET 3.5'
p29
aS'C#'
p30
aS'SQL Server 2008'
p31
aS'Windows Communication Foundation'
p32
asS'30015811'
p33
(lp34
S'.NET 3.5'
p35
aS'C#'
p36
aS'SQL Server 2008'
p37
aS'Windows Communication Foundation'
p38
asS'30015812'
p39
(lp40
S'.NET 3.5'
p41
aS'C#'
p42
aS'SQL Server 2008'
p43
aS'Windows Communication Foundation'
p44
asS'30015813'
p45
(lp46
S'.NET 3.5'
p47
aS'C#'
p48
aS'SQL Server 2008'
p49
aS'Windows Communication Foundation'
p50
asS'30015818'
p51
(lp52
S'.NET 3.5'
p53
aS'C#'
p54
aS'Windows Communication Foundation'
p55
aS'Windows Server'
p56
asS'30018151'
p57
(lp58
S'CSS'
p59
aS'HTML'
p60
aS'JavaScript'
p61
asS'30018156'
p62
(lp63
S'Java'
p64
asS'30018157'
p65
(lp66
S'Java'
p67
asS'30018154'
p68
(lp69
S'Java'
p70
asS'30018155'
p71
(lp72
S'Java'
p73
asS'30018158'
p74
(lp75
S'Java'
p76
asS'30043014'
p77
(lp78
S'Other'
p79
asS'30033645'
p80
(lp81
S'CSS'
p82
aS'HTML'
p83
aS'JavaScript'
p84
aS'Other'
p85
asS'30015700'
p86
(lp87
S'Java'
p88
aS'MySQL'
p89
aS'Spring'
p90
asS'30015701'
p91
(lp92
S'Java'
p93
aS'MySQL'
p94
aS'Spring'
p95
asS'30005772'
p96
(lp97
S'JPA'
p98
asS'30038791'
p99
(lp100
S'JSP'
p101
aS'Java'
p102
asS'30036180'
p103
(lp104
S'Python'
p105
aS'SQL'
p106
asS'30026375'
p107
(lp108
S'.NET 4.0'
p109
aS'C#'
p110
aS'SQL Server 2008'
p111
aS'Windows Server'
p112
asS'30026374'
p113
(lp114
S'.NET 4.0'
p115
aS'C#'
p116
aS'SQL Server 2008'
p117
aS'Windows Server'
p118
asS'30014389'
p119
(lp120
S'Java'
p121
asS'30027422'
p122
(lp123
S'.NET 4.0'
p124
aS'C#'
p125
aS'SQL Server 2008'
p126
aS'Windows Communication Foundation'
p127
asS'30007632'
p128
(lp129
S'.NET'
p130
asS'30013706'
p131
(lp132
S'Not Specified'
p133
asS'30023180'
p134
(lp135
S'Java'
p136
asS'30007398'
p137
(lp138
S'Java'
p139
aS'Struts'
p140
asS'30014031'
p141
(lp142
S'IBM WebSphere Application Server'
p143
aS'Java'
p144
aS'Spring'
p145
aS'Struts'
p146
asS'30014030'
p147
(lp148
S'IBM DB2'
p149
aS'IBM WebSphere Application Server'
p150
aS'J2EE'
p151
aS'Java'
p152
aS'Struts'
p153
asS'30033737'
p154
(lp155
S'Java'
p156
asS'30014032'
p157
(lp158
S'IBM WebSphere Application Server'
p159
aS'Java'
p160
aS'Spring'
p161
aS'Struts'
p162
asS'30027518'
p163
(lp164
S'IBM DB2'
p165
aS'IBM WebSphere Application Server'
p166
aS'Java'
p167
asS'30008071'
p168
(lp169
S'Java'
p170
asS'30008072'
p171
(lp172
S'.NET 3.5'
p173
aS'C#'
p174
asS'30005518'
p175
(lp176
S'JSON'
p177
aS'Java'
p178
aS'Web Services'
p179
asS'30008079'
p180
(lp181
S'.NET 3.5'
p182
asS'30033228'
p183
(lp184
S'EJB 3'
p185
aS'Java'
p186
asS'30048395'
p187
(lp188
S'Angular.js'
p189
aS'CSS'
p190
aS'HTML'
p191
asS'30027739'
p192
(lp193
S'Objective C'
p194
aS'iOS 4.0'
p195
asS'30018159'
p196
(lp197
S'Java'
p198
asS'30033352'
p199
(lp200
S'Java'
p201
asS'30028991'
p202
(lp203
S'.NET 4.0'
p204
aS'C#'
p205
asS'30013387'
p206
(lp207
S'Java'
p208
aS'Oracle 10g'
p209
aS'Spring'
p210
asS'30028993'
p211
(lp212
S'Java'
p213
aS'MySQL'
p214
asS'30008107'
p215
(lp216
S'.NET 3.5'
p217
asS'30015490'
p218
(lp219
S'.NET 3.5'
p220
aS'C#'
p221
aS'SQL Server 2008'
p222
aS'Windows Communication Foundation'
p223
aS'Windows Server'
p224
asS'30028571'
p225
(lp226
S'Perl'
p227
asS'30028570'
p228
(lp229
S'Perl'
p230
asS'30048408'
p231
(lp232
S'Angular.js'
p233
asS'30028579'
p234
(lp235
S'CSS'
p236
aS'HTML'
p237
aS'JavaScript'
p238
asS'30017393'
p239
(lp240
S'CSS'
p241
aS'HTML'
p242
aS'J2EE'
p243
aS'Java'
p244
asS'30028078'
p245
(lp246
S'Not Specified'
p247
asS'30029974'
p248
(lp249
S'Java'
p250
asS'30009479'
p251
(lp252
S'Java'
p253
aS'SQL Server'
p254
asS'30050224'
p255
(lp256
S'Angular.js'
p257
aS'MongoDB'
p258
aS'Node.js'
p259
asS'30032178'
p260
(lp261
S'Java'
p262
asS'30024760'
p263
(lp264
S'Not Specified'
p265
asS'30012160'
p266
(lp267
S'COBOL'
p268
aS'IBM Rational Application Developer'
p269
aS'IBM WebSphere Application Server'
p270
aS'Java Application'
p271
aS'Web Services'
p272
asS'30028376'
p273
(lp274
S'.NET 4.0'
p275
aS'ASP.NET'
p276
aS'C#'
p277
aS'IIS'
p278
aS'Windows Server'
p279
asS'30013964'
p280
(lp281
S'Java'
p282
aS'XML'
p283
asS'30008816'
p284
(lp285
S'Not Specified'
p286
asS'30008817'
p287
(lp288
S'.NET 3.5'
p289
asS'30007330'
p290
(lp291
S'Not Specified'
p292
asS'30007331'
p293
(lp294
S'Java'
p295
asS'30050163'
p296
(lp297
S'Not Specified'
p298
asS'30006558'
p299
(lp300
S'Java'
p301
aS'MySQL'
p302
aS'XML'
p303
asS'30041383'
p304
(lp305
S'Other'
p306
asS'30050164'
p307
(lp308
S'AJAX'
p309
aS'Google API'
p310
aS'Hibernate'
p311
aS'Java'
p312
aS'Node.js'
p313
aS'REST'
p314
aS'SQL Server'
p315
asS'30031679'
p316
(lp317
S'Java'
p318
asS'30015702'
p319
(lp320
S'Java'
p321
aS'MySQL'
p322
aS'Spring'
p323
asS'30035517'
p324
(lp325
S'Not Specified'
p326
asS'30035512'
p327
(lp328
S'Hibernate'
p329
aS'JPA'
p330
aS'Java'
p331
aS'MySQL'
p332
aS'Spring'
p333
asS'30012544'
p334
(lp335
S'CSS'
p336
aS'HTML'
p337
aS'HTTP'
p338
aS'JSP'
p339
aS'JavaScript'
p340
asS'30012543'
p341
(lp342
S'HTML'
p343
aS'IBM DB2'
p344
aS'IBM WebSphere Application Server'
p345
aS'JSP'
p346
asS'30012542'
p347
(lp348
S'CSS'
p349
aS'HTML'
p350
aS'HTTP'
p351
aS'IBM WebSphere Application Server'
p352
aS'JSP'
p353
aS'JavaScript'
p354
asS'30025804'
p355
(lp356
S'CSS'
p357
aS'HTML'
p358
aS'Java'
p359
aS'JavaScript'
p360
asS'30025806'
p361
(lp362
S'Java'
p363
aS'Oracle 10g'
p364
aS'Web Services'
p365
aS'XML'
p366
asS'30030587'
p367
(lp368
S'.NET 4.0'
p369
aS'ASP.NET'
p370
aS'C#'
p371
asS'30030586'
p372
(lp373
S'.NET 4.0'
p374
aS'ASP.NET'
p375
aS'C#'
p376
asS'30030585'
p377
(lp378
S'.NET 4.0'
p379
aS'ASP.NET'
p380
aS'C#'
p381
asS'30030584'
p382
(lp383
S'.NET 4.0'
p384
aS'ASP.NET'
p385
aS'C#'
p386
asS'30030583'
p387
(lp388
S'.NET 4.0'
p389
aS'ASP.NET'
p390
aS'C#'
p391
asS'30030582'
p392
(lp393
S'.NET 4.0'
p394
aS'ASP.NET'
p395
aS'C#'
p396
asS'30024049'
p397
(lp398
S'J2EE'
p399
aS'Java'
p400
asS'30007201'
p401
(lp402
S'.NET'
p403
asS'30006884'
p404
(lp405
S'ASP.NET'
p406
aS'C#'
p407
aS'JavaScript'
p408
asS'30016446'
p409
(lp410
S'.NET 3.5'
p411
aS'C#'
p412
aS'SQL Server 2008'
p413
aS'Windows Communication Foundation'
p414
aS'Windows Server'
p415
asS'30006330'
p416
(lp417
S'Java'
p418
aS'Oracle 10g'
p419
asS'30006333'
p420
(lp421
S'Java'
p422
asS'30024044'
p423
(lp424
S'J2EE'
p425
aS'Java'
p426
asS'30009699'
p427
(lp428
S'.NET 3.5'
p429
aS'Commerce Server 2009'
p430
asS'30009698'
p431
(lp432
S'.NET 3.5'
p433
aS'Commerce Server 2009'
p434
asS'30026371'
p435
(lp436
S'.NET 4.0'
p437
aS'C#'
p438
aS'SQL Server 2008'
p439
aS'Windows Communication Foundation'
p440
aS'Windows Server'
p441
asS'30009693'
p442
(lp443
S'.NET 3.5'
p444
aS'Commerce Server 2009'
p445
asS'30009692'
p446
(lp447
S'.NET 3.5'
p448
aS'Commerce Server 2009'
p449
asS'30009696'
p450
(lp451
S'.NET 3.5'
p452
aS'Commerce Server 2009'
p453
asS'30007840'
p454
(lp455
S'Java'
p456
asS'30007842'
p457
(lp458
S'.NET 3.5'
p459
aS'C#'
p460
asS'30030034'
p461
(lp462
S'Java'
p463
asS'30030032'
p464
(lp465
S'Java'
p466
asS'30031528'
p467
(lp468
S'EJB 3'
p469
aS'IBM DB2'
p470
aS'JDBC'
p471
aS'Java'
p472
asS'30031526'
p473
(lp474
S'Java'
p475
asS'30031527'
p476
(lp477
S'Java'
p478
asS'30031525'
p479
(lp480
S'Java'
p481
asS'30018620'
p482
(lp483
S'CSS'
p484
aS'HTML'
p485
aS'JavaScript'
p486
asS'30018621'
p487
(lp488
S'J2EE'
p489
aS'Spring'
p490
asS'30018622'
p491
(lp492
S'J2EE'
p493
aS'Spring'
p494
asS'30025242'
p495
(lp496
S'Java'
p497
asS'30025243'
p498
(lp499
S'.NET 4.0'
p500
aS'C#'
p501
aS'SQL Server 2008'
p502
aS'Windows Communication Foundation'
p503
aS'Windows Server'
p504
asS'30025246'
p505
(lp506
S'JSON'
p507
aS'JSP'
p508
aS'Java'
p509
aS'JavaScript'
p510
aS'Oracle 10g'
p511
asS'30012616'
p512
(lp513
S'Not Specified'
p514
asS'30025244'
p515
(lp516
S'Hibernate'
p517
aS'JSON'
p518
aS'JSP'
p519
aS'Java'
p520
aS'JavaScript'
p521
aS'Oracle 10g'
p522
aS'Spring'
p523
asS'30007119'
p524
(lp525
S'.NET'
p526
asS'30007112'
p527
(lp528
S'.NET'
p529
asS'30007113'
p530
(lp531
S'.NET'
p532
asS'30008674'
p533
(lp534
S'.NET 3.5'
p535
asS'30007111'
p536
(lp537
S'.NET'
p538
asS'30007116'
p539
(lp540
S'.NET'
p541
asS'30007411'
p542
(lp543
S'.NET 3.5'
p544
aS'C#'
p545
asS'30007114'
p546
(lp547
S'.NET'
p548
asS'30006423'
p549
(lp550
S'J2EE'
p551
aS'SQL Server'
p552
aS'Spring'
p553
asS'30006422'
p554
(lp555
S'J2EE'
p556
aS'SQL Server'
p557
aS'Spring'
p558
asS'30010544'
p559
(lp560
S'.NET 3.5'
p561
aS'Commerce Server 2009'
p562
asS'30011830'
p563
(lp564
S'COBOL'
p565
aS'EJB'
p566
aS'IBM Rational Application Developer'
p567
aS'IBM WebSphere Application Server'
p568
aS'Java'
p569
aS'Web Services'
p570
asS'30019152'
p571
(lp572
S'Java'
p573
asS'30015061'
p574
(lp575
S'Java'
p576
aS'JavaScript'
p577
aS'Oracle 10g'
p578
aS'Struts'
p579
asS'30015060'
p580
(lp581
S'Java'
p582
aS'Oracle 10g'
p583
aS'Struts'
p584
asS'30011233'
p585
(lp586
S'Java'
p587
asS'30007419'
p588
(lp589
S'Java'
p590
aS'Struts'
p591
asS'30011236'
p592
(lp593
S'Java'
p594
asS'30018531'
p595
(lp596
S'CSS'
p597
aS'HTML'
p598
aS'JavaScript'
p599
asS'30019004'
p600
(lp601
S'Java'
p602
aS'Web Services'
p603
asS'30010571'
p604
(lp605
S'Java'
p606
aS'Struts'
p607
asS'30007062'
p608
(lp609
S'.NET 3.0'
p610
aS'.NET 3.5'
p611
aS'ASP.NET'
p612
aS'Active Directory'
p613
aS'C#'
p614
aS'SQL Server'
p615
aS'Windows Communication Foundation'
p616
asS'30024011'
p617
(lp618
S'Java'
p619
asS'30009070'
p620
(lp621
S'Java'
p622
aS'SQL Server 2000'
p623
asS'30026509'
p624
(lp625
S'Perl'
p626
asS'30012565'
p627
(lp628
S'.NET 3.5'
p629
aS'ASP.NET Web Parts'
p630
aS'Commerce Server 2009'
p631
aS'SQL Server 2008'
p632
aS'Sharepoint 3.0'
p633
asS'30008485'
p634
(lp635
S'JSP'
p636
aS'Java'
p637
asS'30008484'
p638
(lp639
S'.NET 3.5'
p640
aS'Windows Communication Foundation'
p641
asS'30018446'
p642
(lp643
S'Java'
p644
asS'30015807'
p645
(lp646
S'.NET 3.5'
p647
aS'C#'
p648
aS'SQL Server 2008'
p649
aS'Windows Communication Foundation'
p650
aS'Windows Server'
p651
asS'30015806'
p652
(lp653
S'.NET 3.5'
p654
aS'C#'
p655
aS'SQL Server 2008'
p656
aS'Windows Communication Foundation'
p657
aS'Windows Server'
p658
asS'30031988'
p659
(lp660
S'Java'
p661
asS'30031989'
p662
(lp663
S'Java'
p664
asS'30005691'
p665
(lp666
S'Not Specified'
p667
asS'30031984'
p668
(lp669
S'.NET 4.0'
p670
aS'C#'
p671
aS'Oracle 10g'
p672
aS'SQL'
p673
aS'SQL Server 2008'
p674
aS'Windows Communication Foundation'
p675
asS'30031985'
p676
(lp677
S'.NET 4.0'
p678
aS'C#'
p679
aS'Oracle 10g'
p680
aS'SQL'
p681
aS'SQL Server 2008'
p682
aS'Windows Communication Foundation'
p683
asS'30031986'
p684
(lp685
S'.NET 4.0'
p686
aS'C#'
p687
aS'Oracle 10g'
p688
aS'Windows Communication Foundation'
p689
asS'30031980'
p690
(lp691
S'.NET 4.0'
p692
aS'C#'
p693
aS'Windows Communication Foundation'
p694
aS'Windows Server'
p695
asS'30031981'
p696
(lp697
S'.NET 4.0'
p698
aS'C#'
p699
asS'30015809'
p700
(lp701
S'.NET 3.5'
p702
aS'C#'
p703
aS'SQL Server 2008'
p704
aS'Windows Communication Foundation'
p705
aS'Windows Server'
p706
asS'30015808'
p707
(lp708
S'.NET 3.5'
p709
aS'C#'
p710
aS'SQL Server 2008'
p711
aS'Windows Communication Foundation'
p712
aS'Windows Server'
p713
asS'30026290'
p714
(lp715
S'Java'
p716
asS'30012568'
p717
(lp718
S'Java'
p719
aS'Oracle 10g'
p720
aS'Windows Server 2003'
p721
asS'30026346'
p722
(lp723
S'Java'
p724
aS'MySQL'
p725
asS'30026347'
p726
(lp727
S'Java'
p728
aS'JavaScript'
p729
asS'30015715'
p730
(lp731
S'Blackberry SDK'
p732
asS'30026126'
p733
(lp734
S'.NET 4.0'
p735
aS'C#'
p736
aS'SQL Server 2008'
p737
aS'Windows Communication Foundation'
p738
aS'Windows Server'
p739
asS'30032185'
p740
(lp741
S'EJB 3'
p742
aS'IBM DB2'
p743
aS'Java'
p744
asS'30032184'
p745
(lp746
S'EJB 3'
p747
aS'IBM DB2'
p748
aS'Java'
p749
asS'30032181'
p750
(lp751
S'EJB 3'
p752
aS'Java'
p753
aS'Spring'
p754
aS'Struts'
p755
asS'30032180'
p756
(lp757
S'EJB 3'
p758
aS'Java'
p759
aS'Spring'
p760
aS'Struts'
p761
asS'30032182'
p762
(lp763
S'EJB 3'
p764
aS'IBM DB2'
p765
aS'JDBC'
p766
aS'Java'
p767
asS'30033744'
p768
(lp769
S'Java'
p770
asS'30033211'
p771
(lp772
S'Java'
p773
asS'30025651'
p774
(lp775
S'JSON'
p776
aS'JSP'
p777
aS'Java'
p778
aS'JavaScript'
p779
asS'30039122'
p780
(lp781
S'J2EE'
p782
aS'Java'
p783
asS'30005504'
p784
(lp785
S'Not Specified'
p786
asS'30014535'
p787
(lp788
S'IBM DB2'
p789
aS'IBM WebSphere Application Server'
p790
aS'J2EE'
p791
aS'Struts'
p792
asS'30014536'
p793
(lp794
S'IBM DB2'
p795
aS'IBM WebSphere Application Server'
p796
aS'J2EE'
p797
aS'Struts'
p798
asS'30019817'
p799
(lp800
S'J2EE'
p801
aS'Spring'
p802
asS'30033964'
p803
(lp804
S'CSS'
p805
aS'HTML'
p806
aS'JavaScript'
p807
aS'Other'
p808
asS'30024857'
p809
(lp810
S'HTML'
p811
aS'JavaScript'
p812
asS'30033968'
p813
(lp814
S'CSS'
p815
aS'HTML'
p816
aS'JavaScript'
p817
aS'Other'
p818
asS'30028769'
p819
(lp820
S'Not Specified'
p821
asS'30027726'
p822
(lp823
S'Java'
p824
asS'30027724'
p825
(lp826
S'IBM DB2'
p827
aS'JSP'
p828
aS'Java'
p829
asS'30027720'
p830
(lp831
S'IBM DB2'
p832
aS'Java'
p833
aS'Spring'
p834
asS'30025650'
p835
(lp836
S'Java'
p837
asS'30027728'
p838
(lp839
S'IBM DB2'
p840
aS'IBM WebSphere Application Server'
p841
aS'Java'
p842
asS'30030513'
p843
(lp844
S'Java'
p845
asS'30013159'
p846
(lp847
S'Java'
p848
aS'Oracle 10g'
p849
aS'Spring'
p850
aS'Struts'
p851
aS'Windows Server 2003'
p852
asS'30013158'
p853
(lp854
S'Java'
p855
aS'Oracle 10g'
p856
aS'Spring'
p857
aS'Struts'
p858
aS'Windows Server 2003'
p859
asS'30013157'
p860
(lp861
S'Java'
p862
aS'Oracle 10g'
p863
aS'Spring'
p864
aS'Struts'
p865
aS'Windows Server 2003'
p866
asS'30008078'
p867
(lp868
S'.NET 3.5'
p869
asS'30013155'
p870
(lp871
S'Java'
p872
aS'Oracle 10g'
p873
aS'Spring'
p874
aS'Struts'
p875
aS'Windows Server 2003'
p876
asS'30013154'
p877
(lp878
S'Java'
p879
aS'Oracle 10g'
p880
aS'Spring'
p881
aS'Struts'
p882
aS'Windows Server 2003'
p883
asS'30013152'
p884
(lp885
S'Not Specified'
p886
asS'30030921'
p887
(lp888
S'Java'
p889
asS'30030920'
p890
(lp891
S'Java'
p892
asS'30030922'
p893
(lp894
S'Java'
p895
asS'30035695'
p896
(lp897
S'Python'
p898
aS'SQL'
p899
asS'30032160'
p900
(lp901
S'JavaScript'
p902
aS'Other'
p903
asS'30032166'
p904
(lp905
S'HTML'
p906
aS'JavaScript'
p907
aS'Other'
p908
asS'30048502'
p909
(lp910
S'Node.js'
p911
asS'30006212'
p912
(lp913
S'Java'
p914
aS'SQL Server 2000'
p915
asS'30017273'
p916
(lp917
S'Not Specified'
p918
asS'30031683'
p919
(lp920
S'JSON'
p921
aS'JavaScript'
p922
aS'Other'
p923
asS'30007218'
p924
(lp925
S'.NET'
p926
asS'30039058'
p927
(lp928
S'Java'
p929
aS'MySQL'
p930
aS'Python'
p931
aS'Redis'
p932
asS'30007211'
p933
(lp934
S'.NET'
p935
asS'30029382'
p936
(lp937
S'.NET 4.0'
p938
aS'C#'
p939
asS'30007212'
p940
(lp941
S'.NET'
p942
asS'30007214'
p943
(lp944
S'.NET 3.0'
p945
asS'30007217'
p946
(lp947
S'.NET'
p948
asS'30029384'
p949
(lp950
S'Java'
p951
aS'MySQL'
p952
asS'30011480'
p953
(lp954
S'Java'
p955
aS'Oracle 10g'
p956
aS'Spring'
p957
asS'30006630'
p958
(lp959
S'Java'
p960
asS'30006631'
p961
(lp962
S'ASP.NET'
p963
asS'30031600'
p964
(lp965
S'EJB 3'
p966
aS'IBM DB2'
p967
aS'IBM WebSphere Application Server'
p968
aS'J2EE'
p969
aS'Java'
p970
asS'30011714'
p971
(lp972
S'COBOL'
p973
aS'IBM Rational Application Developer'
p974
aS'IBM WebSphere Application Server'
p975
aS'Java'
p976
aS'Spring'
p977
aS'Web Services'
p978
asS'30031531'
p979
(lp980
S'EJB 3'
p981
aS'IBM DB2'
p982
aS'JDBC'
p983
aS'Java'
p984
asS'30031530'
p985
(lp986
S'EJB 3'
p987
aS'IBM DB2'
p988
aS'JDBC'
p989
aS'Java'
p990
asS'30031533'
p991
(lp992
S'IBM DB2'
p993
aS'JDBC'
p994
aS'Java'
p995
aS'Spring'
p996
asS'30031532'
p997
(lp998
S'IBM DB2'
p999
aS'JDBC'
p1000
aS'Java'
p1001
aS'Spring'
p1002
asS'30031535'
p1003
(lp1004
S'EJB 3'
p1005
aS'IBM DB2'
p1006
aS'Java'
p1007
asS'30031534'
p1008
(lp1009
S'EJB 3'
p1010
aS'IBM DB2'
p1011
aS'Java'
p1012
asS'30031536'
p1013
(lp1014
S'EJB 3'
p1015
aS'Java'
p1016
asS'30006850'
p1017
(lp1018
S'.NET 3.5'
p1019
aS'C#'
p1020
aS'SQL Server'
p1021
aS'Windows Communication Foundation'
p1022
asS'30006851'
p1023
(lp1024
S'.NET 3.5'
p1025
aS'C#'
p1026
aS'SQL Server'
p1027
aS'Windows Communication Foundation'
p1028
asS'30006853'
p1029
(lp1030
S'.NET 3.5'
p1031
aS'C#'
p1032
aS'SQL Server'
p1033
aS'Windows Communication Foundation'
p1034
asS'30025259'
p1035
(lp1036
S'Java'
p1037
asS'30025258'
p1038
(lp1039
S'Java'
p1040
asS'30035832'
p1041
(lp1042
S'Not Specified'
p1043
asS'30035833'
p1044
(lp1045
S'.NET'
p1046
aS'SQL Server 2008'
p1047
asS'30025251'
p1048
(lp1049
S'Java'
p1050
asS'30008660'
p1051
(lp1052
S'JDBC'
p1053
aS'Java'
p1054
asS'30008663'
p1055
(lp1056
S'JDBC'
p1057
aS'Java'
p1058
aS'SQL Server'
p1059
aS'XML'
p1060
asS'30008662'
p1061
(lp1062
S'JDBC'
p1063
aS'Java'
p1064
aS'SQL Server'
p1065
aS'XML'
p1066
asS'30006455'
p1067
(lp1068
S'Java'
p1069
asS'30006457'
p1070
(lp1071
S'Java'
p1072
asS'30006980'
p1073
(lp1074
S'Java'
p1075
asS'30006981'
p1076
(lp1077
S'.NET 3.5'
p1078
asS'30007694'
p1079
(lp1080
S'.NET 3.5'
p1081
aS'C#'
p1082
asS'30007696'
p1083
(lp1084
S'.NET 3.5'
p1085
aS'C#'
p1086
asS'30006458'
p1087
(lp1088
S'Java'
p1089
asS'30006459'
p1090
(lp1091
S'Java'
p1092
asS'30007921'
p1093
(lp1094
S'.NET'
p1095
asS'30007692'
p1096
(lp1097
S'.NET'
p1098
asS'30030315'
p1099
(lp1100
S'Java'
p1101
asS'30030313'
p1102
(lp1103
S'EJB 3'
p1104
aS'Java'
p1105
asS'30030311'
p1106
(lp1107
S'Java'
p1108
asS'30011229'
p1109
(lp1110
S'CSS'
p1111
aS'HTML'
p1112
aS'JavaScript'
p1113
asS'30011228'
p1114
(lp1115
S'HTML'
p1116
aS'Java'
p1117
aS'JavaScript'
p1118
aS'Oracle 10g'
p1119
asS'30024447'
p1120
(lp1121
S'Java'
p1122
aS'JavaScript'
p1123
asS'30017920'
p1124
(lp1125
S'CSS'
p1126
aS'HTML'
p1127
aS'JavaScript'
p1128
asS'30011225'
p1129
(lp1130
S'Not Specified'
p1131
asS'30007861'
p1132
(lp1133
S'.NET 3.5'
p1134
aS'C#'
p1135
asS'30007074'
p1136
(lp1137
S'.NET'
p1138
aS'.NET 3.5'
p1139
aS'ASP.NET'
p1140
aS'ASP.NET AJAX'
p1141
aS'C#'
p1142
aS'SQL Server'
p1143
aS'UML'
p1144
asS'30008270'
p1145
(lp1146
S'.NET 3.5'
p1147
asS'30025007'
p1148
(lp1149
S'Java'
p1150
asS'30025002'
p1151
(lp1152
S'Java'
p1153
asS'30015653'
p1154
(lp1155
S'IBM DB2'
p1156
aS'IBM WebSphere Application Server'
p1157
aS'Struts'
p1158
asS'30018459'
p1159
(lp1160
S'Not Specified'
p1161
asS'30018453'
p1162
(lp1163
S'Java'
p1164
asS'30033821'
p1165
(lp1166
S'CSS'
p1167
aS'HTML'
p1168
aS'JavaScript'
p1169
aS'Other'
p1170
asS'30018450'
p1171
(lp1172
S'Not Specified'
p1173
asS'30018454'
p1174
(lp1175
S'Java'
p1176
asS'30028992'
p1177
(lp1178
S'.NET 4.0'
p1179
aS'C#'
p1180
asS'30036099'
p1181
(lp1182
S'CSS'
p1183
aS'HTML5'
p1184
aS'JavaScript'
p1185
asS'30031990'
p1186
(lp1187
S'Java'
p1188
asS'30043038'
p1189
(lp1190
S'C'
p1191
aS'Other'
p1192
asS'30014635'
p1193
(lp1194
S'IBM DB2'
p1195
aS'IBM WebSphere Application Server'
p1196
aS'Java'
p1197
aS'Struts'
p1198
asS'30014634'
p1199
(lp1200
S'IBM DB2'
p1201
aS'IBM WebSphere Application Server'
p1202
aS'J2EE'
p1203
aS'Java'
p1204
aS'Struts'
p1205
asS'30024661'
p1206
(lp1207
S'JavaScript'
p1208
asS'30026352'
p1209
(lp1210
S'Not Specified'
p1211
asS'30015729'
p1212
(lp1213
S'HTML'
p1214
aS'JavaScript'
p1215
asS'30027404'
p1216
(lp1217
S'.NET 4.0'
p1218
aS'ASP.NET'
p1219
aS'C#'
p1220
aS'IIS'
p1221
aS'SQL Server 2008'
p1222
aS'Windows Communication Foundation'
p1223
asS'30027403'
p1224
(lp1225
S'.NET 4.0'
p1226
aS'ASP.NET'
p1227
aS'C#'
p1228
aS'IIS'
p1229
aS'SQL Server 2008'
p1230
aS'Windows Communication Foundation'
p1231
asS'30015904'
p1232
(lp1233
S'Java'
p1234
aS'MySQL'
p1235
aS'Spring'
p1236
asS'30018045'
p1237
(lp1238
S'CSS'
p1239
aS'HTML'
p1240
aS'JavaScript'
p1241
asS'30031840'
p1242
(lp1243
S'Java'
p1244
asS'30038930'
p1245
(lp1246
S'Android'
p1247
asS'30018282'
p1248
(lp1249
S'Java'
p1250
asS'30018280'
p1251
(lp1252
S'Java'
p1253
aS'Spring'
p1254
asS'30005534'
p1255
(lp1256
S'Java'
p1257
aS'Spring'
p1258
asS'30032379'
p1259
(lp1260
S'CSS'
p1261
aS'HTML'
p1262
aS'JavaScript'
p1263
aS'Other'
p1264
asS'30025627'
p1265
(lp1266
S'.NET 4.0'
p1267
aS'ASP.NET'
p1268
aS'C#'
p1269
aS'IIS'
p1270
aS'SQL Server 2008'
p1271
aS'Windows Communication Foundation'
p1272
asS'30015830'
p1273
(lp1274
S'.NET 3.5'
p1275
aS'C#'
p1276
aS'SQL Server 2008'
p1277
aS'Windows Communication Foundation'
p1278
asS'30033591'
p1279
(lp1280
S'CSS'
p1281
aS'HTML'
p1282
aS'JavaScript'
p1283
aS'Other'
p1284
asS'30033970'
p1285
(lp1286
S'CSS'
p1287
aS'HTML'
p1288
aS'JavaScript'
p1289
aS'Other'
p1290
asS'30027712'
p1291
(lp1292
S'Java'
p1293
asS'30027713'
p1294
(lp1295
S'Java'
p1296
asS'30029881'
p1297
(lp1298
S'Java'
p1299
aS'Struts'
p1300
asS'30027716'
p1301
(lp1302
S'Java'
p1303
aS'Spring'
p1304
asS'30027717'
p1305
(lp1306
S'Java'
p1307
aS'Spring'
p1308
asS'30027714'
p1309
(lp1310
S'Java'
p1311
aS'Spring'
p1312
asS'30027715'
p1313
(lp1314
S'Java'
p1315
aS'Spring'
p1316
asS'30032084'
p1317
(lp1318
S'.NET 4.0'
p1319
aS'C#'
p1320
aS'Windows Communication Foundation'
p1321
asS'30032085'
p1322
(lp1323
S'Java'
p1324
asS'30027081'
p1325
(lp1326
S'IBM DB2'
p1327
aS'IBM WebSphere Application Server'
p1328
aS'J2EE'
p1329
aS'Java'
p1330
aS'JavaBean'
p1331
asS'30027087'
p1332
(lp1333
S'Not Specified'
p1334
asS'30013163'
p1335
(lp1336
S'Java'
p1337
aS'Oracle 10g'
p1338
aS'Spring'
p1339
aS'Windows Server 2003'
p1340
asS'30013161'
p1341
(lp1342
S'Java'
p1343
aS'Oracle 10g'
p1344
aS'Spring'
p1345
aS'Windows Server 2003'
p1346
asS'30013166'
p1347
(lp1348
S'Java'
p1349
aS'Oracle 10g'
p1350
aS'Spring'
p1351
aS'Struts'
p1352
asS'30013167'
p1353
(lp1354
S'Java'
p1355
aS'Oracle 10g'
p1356
aS'Spring'
p1357
aS'Windows Server 2003'
p1358
asS'30009538'
p1359
(lp1360
S'.NET 3.5'
p1361
aS'Commerce Server 2009'
p1362
asS'30013165'
p1363
(lp1364
S'Java'
p1365
aS'Oracle 10g'
p1366
aS'Spring'
p1367
aS'Struts'
p1368
asS'30009537'
p1369
(lp1370
S'.NET 3.5'
p1371
aS'Commerce Server 2009'
p1372
asS'30013168'
p1373
(lp1374
S'Java'
p1375
aS'Oracle 10g'
p1376
aS'Spring'
p1377
aS'Windows Server 2003'
p1378
asS'30009535'
p1379
(lp1380
S'.NET 3.5'
p1381
aS'Commerce Server 2009'
p1382
asS'30009533'
p1383
(lp1384
S'.NET 3.5'
p1385
aS'Commerce Server 2009'
p1386
aS'Sharepoint 3.0'
p1387
asS'30033371'
p1388
(lp1389
S'Java'
p1390
aS'Python'
p1391
asS'30033370'
p1392
(lp1393
S'Not Specified'
p1394
asS'30033372'
p1395
(lp1396
S'CSS'
p1397
aS'HTML'
p1398
aS'JavaScript'
p1399
asS'30042740'
p1400
(lp1401
S'CSS'
p1402
aS'HTML'
p1403
aS'JavaScript'
p1404
aS'MongoDB'
p1405
aS'Node.js'
p1406
asS'30028975'
p1407
(lp1408
S'Java'
p1409
asS'30025530'
p1410
(lp1411
S'Java'
p1412
asS'30008127'
p1413
(lp1414
S'J2EE'
p1415
aS'Spring'
p1416
aS'Struts'
p1417
asS'30028979'
p1418
(lp1419
S'CSS'
p1420
aS'HTML'
p1421
aS'JavaScript'
p1422
asS'30028978'
p1423
(lp1424
S'Java'
p1425
asS'30025534'
p1426
(lp1427
S'Perl'
p1428
asS'30051305'
p1429
(lp1430
S'Angular.js'
p1431
aS'Google API'
p1432
aS'HTML5'
p1433
asS'30009453'
p1434
(lp1435
S'.NET 3.5'
p1436
asS'30009456'
p1437
(lp1438
S'.NET 3.5'
p1439
asS'30029955'
p1440
(lp1441
S'Java'
p1442
asS'30049606'
p1443
(lp1444
S'Angular.js'
p1445
aS'HTML'
p1446
asS'30031303'
p1447
(lp1448
S'J2EE'
p1449
aS'JSON'
p1450
aS'Java'
p1451
aS'Spring'
p1452
asS'30028779'
p1453
(lp1454
S'CSS'
p1455
aS'HTML'
p1456
aS'JavaScript'
p1457
asS'30028778'
p1458
(lp1459
S'Not Specified'
p1460
asS'30018992'
p1461
(lp1462
S'J2EE'
p1463
aS'Spring'
p1464
asS'30032407'
p1465
(lp1466
S'iOS 5.0'
p1467
asS'30032408'
p1468
(lp1469
S'iOS 5.0'
p1470
asS'30017081'
p1471
(lp1472
S'HTML'
p1473
aS'JSP'
p1474
aS'Java'
p1475
aS'JavaScript'
p1476
asS'30028774'
p1477
(lp1478
S'Not Specified'
p1479
asS'30028776'
p1480
(lp1481
S'HTML5'
p1482
aS'Java'
p1483
asS'30048519'
p1484
(lp1485
S'Node.js'
p1486
asS'30023400'
p1487
(lp1488
S'Java'
p1489
asS'30026926'
p1490
(lp1491
S'Java'
p1492
asS'30026927'
p1493
(lp1494
S'Java'
p1495
asS'30030839'
p1496
(lp1497
S'Java'
p1498
asS'30030838'
p1499
(lp1500
S'Java'
p1501
asS'30030837'
p1502
(lp1503
S'Java'
p1504
asS'30026928'
p1505
(lp1506
S'Java'
p1507
asS'30006531'
p1508
(lp1509
S'Java'
p1510
asS'30031056'
p1511
(lp1512
S'Java'
p1513
asS'30031057'
p1514
(lp1515
S'Java'
p1516
asS'30042811'
p1517
(lp1518
S'Other'
p1519
asS'30017518'
p1520
(lp1521
S'Not Specified'
p1522
asS'30034244'
p1523
(lp1524
S'Java'
p1525
asS'30025392'
p1526
(lp1527
S'JSON'
p1528
aS'JSP'
p1529
aS'Java'
p1530
aS'JavaScript'
p1531
aS'Spring'
p1532
asS'30007260'
p1533
(lp1534
S'.NET'
p1535
asS'30024064'
p1536
(lp1537
S'Not Specified'
p1538
asS'30031233'
p1539
(lp1540
S'HTML5'
p1541
aS'JDBC'
p1542
aS'JSP'
p1543
aS'Java'
p1544
aS'JavaScript'
p1545
aS'MySQL'
p1546
asS'30011720'
p1547
(lp1548
S'COBOL'
p1549
aS'EJB'
p1550
aS'IBM Rational Application Developer'
p1551
aS'IBM WebSphere Application Server'
p1552
aS'Java'
p1553
aS'Web Services'
p1554
asS'30011726'
p1555
(lp1556
S'COBOL'
p1557
aS'IBM Rational Application Developer'
p1558
aS'IBM WebSphere Application Server'
p1559
aS'Java'
p1560
aS'Spring'
p1561
aS'Web Services'
p1562
asS'30034335'
p1563
(lp1564
S'iOS 5.0'
p1565
asS'30011729'
p1566
(lp1567
S'COBOL'
p1568
aS'IBM Rational Application Developer'
p1569
aS'IBM WebSphere Application Server'
p1570
aS'Java'
p1571
aS'Web Services'
p1572
asS'30018279'
p1573
(lp1574
S'Java'
p1575
aS'Spring'
p1576
asS'30034065'
p1577
(lp1578
S'Java'
p1579
asS'30034066'
p1580
(lp1581
S'Ruby'
p1582
asS'30034063'
p1583
(lp1584
S'JavaScript'
p1585
asS'30048889'
p1586
(lp1587
S'Angular.js'
p1588
aS'HTML5'
p1589
aS'Node.js'
p1590
asS'30035148'
p1591
(lp1592
S'JMS'
p1593
aS'Java'
p1594
aS'MySQL'
p1595
aS'Spring'
p1596
asS'30012632'
p1597
(lp1598
S'CSS'
p1599
aS'HTML'
p1600
aS'JavaScript'
p1601
asS'30007461'
p1602
(lp1603
S'Java'
p1604
asS'30006991'
p1605
(lp1606
S'Java'
p1607
asS'30006992'
p1608
(lp1609
S'Java'
p1610
asS'30010853'
p1611
(lp1612
S'.NET 3.5'
p1613
aS'Commerce Server 2009'
p1614
asS'30010852'
p1615
(lp1616
S'.NET 3.5'
p1617
aS'Commerce Server 2009'
p1618
aS'Sharepoint 3.0'
p1619
asS'30034482'
p1620
(lp1621
S'JSP'
p1622
aS'Java'
p1623
asS'30034483'
p1624
(lp1625
S'JSP'
p1626
aS'Java'
p1627
asS'30034480'
p1628
(lp1629
S'JSP'
p1630
aS'Java'
p1631
asS'30034481'
p1632
(lp1633
S'JSP'
p1634
aS'Java'
p1635
asS'30010524'
p1636
(lp1637
S'.NET 3.5'
p1638
aS'Commerce Server 2009'
p1639
asS'30010523'
p1640
(lp1641
S'.NET 3.5'
p1642
aS'Commerce Server 2009'
p1643
asS'30010522'
p1644
(lp1645
S'.NET 3.5'
p1646
aS'ASP.NET Web Parts'
p1647
aS'Commerce Server 2009'
p1648
aS'SQL Server 2008'
p1649
aS'Sharepoint 3.0'
p1650
aS'Windows Server'
p1651
asS'30010521'
p1652
(lp1653
S'.NET 3.5'
p1654
aS'ASP.NET Web Parts'
p1655
aS'Commerce Server 2009'
p1656
aS'SQL Server 2008'
p1657
aS'Sharepoint 3.0'
p1658
aS'Windows Server'
p1659
asS'30007480'
p1660
(lp1661
S'Java'
p1662
aS'Struts'
p1663
asS'30007481'
p1664
(lp1665
S'.NET 3.5'
p1666
aS'ASP.NET'
p1667
aS'SQL Server'
p1668
aS'Windows Communication Foundation'
p1669
asS'30026095'
p1670
(lp1671
S'Java'
p1672
asS'30034664'
p1673
(lp1674
S'HTML'
p1675
asS'30034665'
p1676
(lp1677
S'XML'
p1678
asS'30024472'
p1679
(lp1680
S'J2EE'
p1681
aS'Java'
p1682
aS'Oracle 10g'
p1683
aS'Spring'
p1684
asS'30024473'
p1685
(lp1686
S'J2EE'
p1687
aS'Java'
p1688
aS'Oracle 10g'
p1689
aS'Spring'
p1690
asS'30024476'
p1691
(lp1692
S'J2EE'
p1693
aS'Java'
p1694
aS'Oracle 10g'
p1695
aS'Spring'
p1696
asS'30024197'
p1697
(lp1698
S'Java'
p1699
asS'30024474'
p1700
(lp1701
S'J2EE'
p1702
aS'Java'
p1703
aS'Oracle 10g'
p1704
aS'Spring'
p1705
asS'30019025'
p1706
(lp1707
S'CSS'
p1708
aS'HTML'
p1709
asS'30024275'
p1710
(lp1711
S'Java'
p1712
aS'JavaScript'
p1713
asS'30024277'
p1714
(lp1715
S'Java'
p1716
asS'30007002'
p1717
(lp1718
S'ASP.NET'
p1719
aS'C#'
p1720
aS'SQL Server'
p1721
aS'Windows Communication Foundation'
p1722
asS'30030543'
p1723
(lp1724
S'Java'
p1725
asS'30030542'
p1726
(lp1727
S'Java'
p1728
asS'30030545'
p1729
(lp1730
S'Java'
p1731
aS'Spring'
p1732
asS'30018462'
p1733
(lp1734
S'Java'
p1735
asS'30018463'
p1736
(lp1737
S'Java'
p1738
asS'30027872'
p1739
(lp1740
S'Java'
p1741
asS'30027871'
p1742
(lp1743
S'Not Specified'
p1744
asS'30026862'
p1745
(lp1746
S'Android 2.2'
p1747
aS'iOS 4.0'
p1748
aS'iOS 5.0'
p1749
asS'30036225'
p1750
(lp1751
S'HTML5'
p1752
aS'SQL Server 2008'
p1753
aS'Web Services'
p1754
asS'30033167'
p1755
(lp1756
S'Java'
p1757
asS'30014602'
p1758
(lp1759
S'EJB 3'
p1760
aS'IBM DB2'
p1761
aS'IBM WebSphere Application Server'
p1762
aS'J2EE'
p1763
aS'JPA'
p1764
aS'Spring'
p1765
asS'30014603'
p1766
(lp1767
S'EJB 3'
p1768
aS'IBM DB2'
p1769
aS'IBM WebSphere Application Server'
p1770
aS'JPA'
p1771
aS'Spring'
p1772
asS'30019232'
p1773
(lp1774
S'Java'
p1775
asS'30014601'
p1776
(lp1777
S'EJB 3'
p1778
aS'IBM DB2'
p1779
aS'IBM WebSphere Application Server'
p1780
aS'J2EE'
p1781
aS'JPA'
p1782
aS'Spring'
p1783
asS'30014606'
p1784
(lp1785
S'EJB 3'
p1786
aS'IBM WebSphere Application Server'
p1787
aS'J2EE'
p1788
aS'JPA'
p1789
aS'Spring'
p1790
asS'30014607'
p1791
(lp1792
S'EJB 3'
p1793
aS'IBM DB2'
p1794
aS'IBM WebSphere Application Server'
p1795
aS'JPA'
p1796
aS'JavaScript'
p1797
aS'Struts'
p1798
asS'30014605'
p1799
(lp1800
S'EJB 3'
p1801
aS'IBM WebSphere Application Server'
p1802
aS'J2EE'
p1803
aS'JPA'
p1804
aS'Spring'
p1805
asS'30005740'
p1806
(lp1807
S'JSON'
p1808
aS'Java'
p1809
asS'30014608'
p1810
(lp1811
S'EJB 3'
p1812
aS'IBM DB2'
p1813
aS'IBM WebSphere Application Server'
p1814
aS'JPA'
p1815
aS'JavaScript'
p1816
aS'Struts'
p1817
asS'30005742'
p1818
(lp1819
S'HTML'
p1820
aS'JSON'
p1821
aS'Java'
p1822
aS'Spring'
p1823
aS'Struts'
p1824
aS'Web Services'
p1825
asS'30005744'
p1826
(lp1827
S'AJAX'
p1828
aS'HTML'
p1829
aS'JSON'
p1830
aS'Java'
p1831
aS'Spring'
p1832
aS'Struts'
p1833
aS'Web Services'
p1834
asS'30005747'
p1835
(lp1836
S'Java'
p1837
asS'30024491'
p1838
(lp1839
S'Hibernate'
p1840
aS'Java'
p1841
aS'Oracle 10g'
p1842
aS'Spring'
p1843
asS'30049447'
p1844
(lp1845
S'C++'
p1846
aS'Java'
p1847
asS'30018054'
p1848
(lp1849
S'EJB 3'
p1850
aS'Hibernate'
p1851
aS'J2EE'
p1852
aS'Java'
p1853
aS'JavaScript'
p1854
aS'Oracle 9i'
p1855
aS'Spring'
p1856
asS'30026382'
p1857
(lp1858
S'.NET 4.0'
p1859
aS'C#'
p1860
asS'30026383'
p1861
(lp1862
S'.NET 4.0'
p1863
aS'C#'
p1864
asS'30018051'
p1865
(lp1866
S'Java'
p1867
asS'30026381'
p1868
(lp1869
S'.NET 4.0'
p1870
aS'C#'
p1871
asS'30031832'
p1872
(lp1873
S'Java'
p1874
aS'JavaScript'
p1875
aS'Other'
p1876
asS'30033561'
p1877
(lp1878
S'CSS'
p1879
aS'HTML'
p1880
aS'JavaScript'
p1881
asS'30025632'
p1882
(lp1883
S'.NET 4.0'
p1884
aS'ASP.NET'
p1885
aS'C#'
p1886
aS'IIS'
p1887
aS'SQL Server 2008'
p1888
aS'Windows Communication Foundation'
p1889
asS'30025631'
p1890
(lp1891
S'.NET 4.0'
p1892
aS'Web Services'
p1893
aS'Windows Communication Foundation'
p1894
asS'30025630'
p1895
(lp1896
S'.NET 4.0'
p1897
aS'ASP.NET'
p1898
aS'C#'
p1899
aS'IIS'
p1900
aS'SQL Server 2008'
p1901
aS'Windows Communication Foundation'
p1902
asS'30027259'
p1903
(lp1904
S'Java'
p1905
asS'30027258'
p1906
(lp1907
S'Java'
p1908
aS'SQL'
p1909
asS'30027257'
p1910
(lp1911
S'Java'
p1912
aS'SQL'
p1913
asS'30027256'
p1914
(lp1915
S'EJB 3'
p1916
aS'JPA'
p1917
aS'Java'
p1918
asS'30027255'
p1919
(lp1920
S'Java'
p1921
aS'Struts'
p1922
asS'30027254'
p1923
(lp1924
S'CSS'
p1925
aS'HTML'
p1926
aS'JavaScript'
p1927
asS'30027701'
p1928
(lp1929
S'Java'
p1930
asS'30027700'
p1931
(lp1932
S'Java'
p1933
asS'30027703'
p1934
(lp1935
S'Java'
p1936
asS'30027702'
p1937
(lp1938
S'Java'
p1939
asS'30026654'
p1940
(lp1941
S'Not Specified'
p1942
asS'30026655'
p1943
(lp1944
S'Java'
p1945
aS'MySQL'
p1946
aS'Spring'
p1947
asS'30026656'
p1948
(lp1949
S'Java'
p1950
aS'Spring'
p1951
asS'30026657'
p1952
(lp1953
S'Java'
p1954
aS'MySQL'
p1955
aS'Spring'
p1956
asS'30050327'
p1957
(lp1958
S'AJAX'
p1959
aS'Google API'
p1960
aS'HTML'
p1961
aS'HTML5'
p1962
aS'JDBC'
p1963
aS'Java'
p1964
aS'SQL Server'
p1965
asS'30013170'
p1966
(lp1967
S'Java'
p1968
aS'Oracle 10g'
p1969
aS'Spring'
p1970
aS'Windows Server 2003'
p1971
asS'30032569'
p1972
(lp1973
S'Java'
p1974
asS'30017711'
p1975
(lp1976
S'J2EE'
p1977
asS'30031943'
p1978
(lp1979
S'IBM DB2'
p1980
aS'IBM WebSphere Application Server'
p1981
aS'JSP'
p1982
aS'Java'
p1983
aS'JavaScript'
p1984
asS'30031945'
p1985
(lp1986
S'JavaScript'
p1987
aS'Other'
p1988
asS'30031946'
p1989
(lp1990
S'JavaScript'
p1991
aS'Other'
p1992
asS'30013374'
p1993
(lp1994
S'CSS'
p1995
aS'HTML'
p1996
aS'JavaScript'
p1997
asS'30027411'
p1998
(lp1999
S'Not Specified'
p2000
asS'30027413'
p2001
(lp2002
S'Perl'
p2003
asS'30027412'
p2004
(lp2005
S'Perl'
p2006
asS'30027415'
p2007
(lp2008
S'Perl'
p2009
asS'30027414'
p2010
(lp2011
S'Perl'
p2012
asS'30027417'
p2013
(lp2014
S'Perl'
p2015
asS'30027416'
p2016
(lp2017
S'Perl'
p2018
asS'30028017'
p2019
(lp2020
S'.NET 4.0'
p2021
aS'ADO.NET'
p2022
aS'C#'
p2023
asS'30033890'
p2024
(lp2025
S'Java'
p2026
asS'30016858'
p2027
(lp2028
S'.NET 3.5'
p2029
aS'C#'
p2030
aS'SQL Server 2008'
p2031
aS'Windows Communication Foundation'
p2032
aS'Windows Server'
p2033
asS'30032894'
p2034
(lp2035
S'.NET 4.0'
p2036
aS'ASP.NET'
p2037
aS'C#'
p2038
asS'30031755'
p2039
(lp2040
S'Java'
p2041
asS'30017676'
p2042
(lp2043
S'Java'
p2044
asS'30017677'
p2045
(lp2046
S'HTML'
p2047
aS'Java'
p2048
aS'JavaScript'
p2049
asS'30029943'
p2050
(lp2051
S'JavaScript'
p2052
aS'Other'
p2053
asS'30029942'
p2054
(lp2055
S'JavaScript'
p2056
aS'Other'
p2057
asS'30017678'
p2058
(lp2059
S'Java'
p2060
asS'30017679'
p2061
(lp2062
S'Java'
p2063
asS'30049610'
p2064
(lp2065
S'Not Specified'
p2066
asS'30032417'
p2067
(lp2068
S'iOS 5.0'
p2069
asS'30022361'
p2070
(lp2071
S'CSS'
p2072
aS'HTML'
p2073
aS'JavaScript'
p2074
asS'30022362'
p2075
(lp2076
S'Java'
p2077
asS'30008019'
p2078
(lp2079
S'.NET 3.5'
p2080
asS'30028127'
p2081
(lp2082
S'Not Specified'
p2083
asS'30006297'
p2084
(lp2085
S'Java'
p2086
asS'30016587'
p2087
(lp2088
S'Blackberry SDK'
p2089
aS'Java'
p2090
asS'30016586'
p2091
(lp2092
S'Blackberry SDK'
p2093
aS'Java'
p2094
asS'30016585'
p2095
(lp2096
S'Blackberry SDK'
p2097
aS'Java'
p2098
asS'30016584'
p2099
(lp2100
S'Blackberry SDK'
p2101
aS'Java'
p2102
asS'30031048'
p2103
(lp2104
S'CSS'
p2105
aS'HTML'
p2106
aS'JavaScript'
p2107
asS'30008015'
p2108
(lp2109
S'.NET 3.5'
p2110
asS'30006507'
p2111
(lp2112
S'.NET'
p2113
aS'.NET 3.5'
p2114
aS'ASP.NET'
p2115
aS'C#'
p2116
aS'SQL Server'
p2117
aS'Windows Communication Foundation'
p2118
asS'30006056'
p2119
(lp2120
S'Java'
p2121
asS'30006508'
p2122
(lp2123
S'.NET 3.5'
p2124
aS'C#'
p2125
aS'Windows Communication Foundation'
p2126
asS'30006509'
p2127
(lp2128
S'.NET 3.5'
p2129
aS'C#'
p2130
aS'Windows Communication Foundation'
p2131
asS'30028835'
p2132
(lp2133
S'CSS'
p2134
aS'HTML'
p2135
aS'JavaScript'
p2136
asS'30048454'
p2137
(lp2138
S'Angular.js'
p2139
aS'CSS'
p2140
asS'30016037'
p2141
(lp2142
S'J2EE'
p2143
aS'Java'
p2144
aS'JavaScript'
p2145
aS'MySQL'
p2146
asS'30016031'
p2147
(lp2148
S'.NET 3.5'
p2149
aS'C#'
p2150
aS'SQL Server 2008'
p2151
aS'Windows Communication Foundation'
p2152
aS'Windows Server'
p2153
asS'30029618'
p2154
(lp2155
S'Xcode'
p2156
asS'30025381'
p2157
(lp2158
S'HTML'
p2159
aS'Java'
p2160
asS'30007279'
p2161
(lp2162
S'.NET'
p2163
asS'30007278'
p2164
(lp2165
S'Java'
p2166
asS'30007276'
p2167
(lp2168
S'.NET'
p2169
asS'30023703'
p2170
(lp2171
S'Java'
p2172
asS'30023704'
p2173
(lp2174
S'Java'
p2175
asS'30024010'
p2176
(lp2177
S'Java'
p2178
asS'30050045'
p2179
(lp2180
S'Google API'
p2181
aS'JPA'
p2182
aS'Java'
p2183
aS'REST'
p2184
asS'30024013'
p2185
(lp2186
S'HTML'
p2187
aS'Java'
p2188
aS'JavaScript'
p2189
asS'30006877'
p2190
(lp2191
S'Activity Diagrams (TCUML)'
p2192
aS'Use Case Diagrams (TCUML)'
p2193
aS'Word/Rich Text'
p2194
asS'30006875'
p2195
(lp2196
S'MySQL'
p2197
aS'Ruby on Rails'
p2198
asS'30007471'
p2199
(lp2200
S'.NET 3.5'
p2201
aS'C#'
p2202
asS'30007470'
p2203
(lp2204
S'J2EE'
p2205
aS'Java'
p2206
asS'30007473'
p2207
(lp2208
S'.NET 3.5'
p2209
aS'C#'
p2210
asS'30011592'
p2211
(lp2212
S'COBOL'
p2213
aS'IBM AIX'
p2214
aS'IBM WebSphere Application Server'
p2215
aS'Java'
p2216
aS'Spring'
p2217
aS'Web Services'
p2218
asS'30007479'
p2219
(lp2220
S'.NET 3.5'
p2221
aS'C#'
p2222
asS'30007478'
p2223
(lp2224
S'.NET 3.5'
p2225
aS'C#'
p2226
asS'30034497'
p2227
(lp2228
S'.NET'
p2229
asS'30034496'
p2230
(lp2231
S'.NET'
p2232
asS'30010516'
p2233
(lp2234
S'.NET 3.5'
p2235
aS'ASP.NET Web Parts'
p2236
aS'Commerce Server 2009'
p2237
aS'SQL Server 2008'
p2238
aS'Sharepoint 3.0'
p2239
aS'Windows Server'
p2240
asS'30010517'
p2241
(lp2242
S'.NET 3.5'
p2243
aS'ASP.NET Web Parts'
p2244
aS'Commerce Server 2009'
p2245
aS'SQL Server 2008'
p2246
aS'Sharepoint 3.0'
p2247
aS'Windows Server'
p2248
asS'30010515'
p2249
(lp2250
S'.NET 3.5'
p2251
aS'ASP.NET Web Parts'
p2252
aS'Commerce Server 2009'
p2253
aS'SQL Server 2008'
p2254
aS'Sharepoint 3.0'
p2255
aS'Windows Server'
p2256
asS'30009950'
p2257
(lp2258
S'.NET 3.5'
p2259
aS'ASP.NET Web Parts'
p2260
aS'Commerce Server 2009'
p2261
aS'SQL Server 2008'
p2262
aS'Sharepoint 3.0'
p2263
aS'Windows Server'
p2264
asS'30030793'
p2265
(lp2266
S'Not Specified'
p2267
asS'30030791'
p2268
(lp2269
S'JavaScript'
p2270
aS'PhoneGap'
p2271
asS'30034498'
p2272
(lp2273
S'.NET'
p2274
asS'30024047'
p2275
(lp2276
S'Java'
p2277
asS'30024046'
p2278
(lp2279
S'Java'
p2280
asS'30015037'
p2281
(lp2282
S'EJB'
p2283
aS'JPA'
p2284
aS'Java'
p2285
asS'30034477'
p2286
(lp2287
S'iOS 5.0'
p2288
asS'30034476'
p2289
(lp2290
S'iOS 5.0'
p2291
asS'30034474'
p2292
(lp2293
S'.NET'
p2294
asS'30008738'
p2295
(lp2296
S'JSP'
p2297
aS'Java'
p2298
asS'30008737'
p2299
(lp2300
S'Java'
p2301
asS'30050467'
p2302
(lp2303
S'Angular.js'
p2304
asS'30017983'
p2305
(lp2306
S'CSS'
p2307
aS'HTML'
p2308
aS'JavaScript'
p2309
asS'30048858'
p2310
(lp2311
S'Angular.js'
p2312
aS'HTML5'
p2313
aS'Node.js'
p2314
asS'30024394'
p2315
(lp2316
S'Java'
p2317
asS'30024393'
p2318
(lp2319
S'Java'
p2320
asS'30018205'
p2321
(lp2322
S'Java'
p2323
asS'30051081'
p2324
(lp2325
S'Angular.js'
p2326
asS'30036231'
p2327
(lp2328
S'Python'
p2329
asS'30019223'
p2330
(lp2331
S'Java'
p2332
asS'30025732'
p2333
(lp2334
S'CSS'
p2335
aS'Java'
p2336
aS'JavaScript'
p2337
asS'30014610'
p2338
(lp2339
S'EJB 3'
p2340
aS'IBM DB2'
p2341
aS'J2EE'
p2342
asS'30024482'
p2343
(lp2344
S'Java'
p2345
aS'MySQL'
p2346
aS'Spring'
p2347
asS'30023385'
p2348
(lp2349
S'Java'
p2350
aS'Oracle 10g'
p2351
aS'Web Services'
p2352
aS'XML'
p2353
asS'30023381'
p2354
(lp2355
S'Java'
p2356
aS'Oracle 10g'
p2357
aS'Web Services'
p2358
aS'XML'
p2359
asS'30023382'
p2360
(lp2361
S'Oracle 10g'
p2362
aS'PL/SQL'
p2363
asS'30014982'
p2364
(lp2365
S'Objective C'
p2366
asS'30026424'
p2367
(lp2368
S'.NET 4.0'
p2369
aS'C#'
p2370
aS'CSS'
p2371
aS'HTML'
p2372
aS'JavaScript'
p2373
asS'30036123'
p2374
(lp2375
S'HTML'
p2376
aS'Python'
p2377
aS'SQL'
p2378
asS'30008214'
p2379
(lp2380
S'.NET 3.5'
p2381
asS'30036124'
p2382
(lp2383
S'CSS'
p2384
aS'HTML'
p2385
aS'JavaScript'
p2386
asS'30014501'
p2387
(lp2388
S'IBM DB2'
p2389
aS'IBM WebSphere Application Server'
p2390
aS'J2EE'
p2391
aS'Struts'
p2392
asS'30014502'
p2393
(lp2394
S'IBM DB2'
p2395
aS'IBM WebSphere Application Server'
p2396
aS'J2EE'
p2397
aS'Struts'
p2398
asS'30014505'
p2399
(lp2400
S'IBM DB2'
p2401
aS'IBM WebSphere Application Server'
p2402
aS'J2EE'
p2403
aS'Struts'
p2404
asS'30014504'
p2405
(lp2406
S'IBM DB2'
p2407
aS'IBM WebSphere Application Server'
p2408
aS'J2EE'
p2409
aS'Struts'
p2410
asS'30005644'
p2411
(lp2412
S'Not Specified'
p2413
asS'30024734'
p2414
(lp2415
S'JSON'
p2416
aS'Java'
p2417
aS'Spring'
p2418
aS'Web Services'
p2419
asS'30017862'
p2420
(lp2421
S'Java'
p2422
asS'30024739'
p2423
(lp2424
S'HTML'
p2425
aS'JavaScript'
p2426
asS'30005743'
p2427
(lp2428
S'HTML'
p2429
aS'Java'
p2430
aS'Spring'
p2431
aS'Struts'
p2432
aS'Web Services'
p2433
asS'30027262'
p2434
(lp2435
S'Java'
p2436
asS'30027263'
p2437
(lp2438
S'Java'
p2439
asS'30027260'
p2440
(lp2441
S'Java'
p2442
asS'30027261'
p2443
(lp2444
S'Java'
p2445
asS'30027266'
p2446
(lp2447
S'Java'
p2448
asS'30027267'
p2449
(lp2450
S'Java'
p2451
asS'30027264'
p2452
(lp2453
S'Java'
p2454
asS'30027265'
p2455
(lp2456
S'Java'
p2457
asS'30040475'
p2458
(lp2459
S'Not Specified'
p2460
asS'30027268'
p2461
(lp2462
S'Java'
p2463
asS'30027269'
p2464
(lp2465
S'Java'
p2466
asS'30024654'
p2467
(lp2468
S'J2EE'
p2469
aS'Spring'
p2470
asS'30049821'
p2471
(lp2472
S'AJAX'
p2473
aS'Google API'
p2474
aS'HTML5'
p2475
aS'JDBC'
p2476
aS'Java'
p2477
aS'SQL Server'
p2478
asS'30031950'
p2479
(lp2480
S'J2EE'
p2481
aS'JSON'
p2482
aS'Java'
p2483
aS'Spring'
p2484
asS'30025247'
p2485
(lp2486
S'JSON'
p2487
aS'JSP'
p2488
aS'Java'
p2489
aS'JavaScript'
p2490
aS'Oracle 10g'
p2491
aS'Spring'
p2492
asS'30033315'
p2493
(lp2494
S'Java'
p2495
asS'30027462'
p2496
(lp2497
S'.NET 4.0'
p2498
aS'IIS'
p2499
aS'SQL Server 2008'
p2500
aS'Windows Communication Foundation'
p2501
asS'30031460'
p2502
(lp2503
S'.NET 4.0'
p2504
aS'C#'
p2505
asS'30023564'
p2506
(lp2507
S'HTML'
p2508
aS'Java'
p2509
aS'JavaScript'
p2510
asS'30009434'
p2511
(lp2512
S'CSS'
p2513
aS'HTML'
p2514
aS'JavaScript'
p2515
asS'30049625'
p2516
(lp2517
S'AJAX'
p2518
aS'Google API'
p2519
aS'HTML5'
p2520
aS'JDBC'
p2521
aS'Java'
p2522
aS'SQL Server'
p2523
asS'30049629'
p2524
(lp2525
S'Angular.js'
p2526
aS'HTML5'
p2527
aS'Node.js'
p2528
asS'30017061'
p2529
(lp2530
S'CSS'
p2531
aS'HTML'
p2532
aS'JavaScript'
p2533
asS'30033956'
p2534
(lp2535
S'Java'
p2536
asS'30007110'
p2537
(lp2538
S'.NET'
p2539
asS'30030814'
p2540
(lp2541
S'JavaScript'
p2542
aS'PhoneGap'
p2543
asS'30030817'
p2544
(lp2545
S'JavaScript'
p2546
aS'PhoneGap'
p2547
aS'Sencha Touch 2'
p2548
asS'30027289'
p2549
(lp2550
S'JSP'
p2551
aS'Java'
p2552
asS'30027281'
p2553
(lp2554
S'Java'
p2555
asS'30027283'
p2556
(lp2557
S'Java'
p2558
asS'30031458'
p2559
(lp2560
S'Java'
p2561
asS'30027287'
p2562
(lp2563
S'JSP'
p2564
aS'Java'
p2565
asS'30031590'
p2566
(lp2567
S'Java'
p2568
aS'Spring'
p2569
asS'30039533'
p2570
(lp2571
S'Java'
p2572
aS'Spring'
p2573
asS'30039535'
p2574
(lp2575
S'Java'
p2576
aS'Spring'
p2577
asS'30007240'
p2578
(lp2579
S'Java'
p2580
asS'30017239'
p2581
(lp2582
S'CSS'
p2583
aS'HTML'
p2584
aS'JavaScript'
p2585
asS'30006949'
p2586
(lp2587
S'MySQL'
p2588
aS'Ruby on Rails'
p2589
asS'30023776'
p2590
(lp2591
S'HTML'
p2592
aS'JavaScript'
p2593
asS'30023773'
p2594
(lp2595
S'.NET 3.5'
p2596
aS'SQL Server 2008'
p2597
aS'Windows Communication Foundation'
p2598
aS'Windows Server'
p2599
asS'30006609'
p2600
(lp2601
S'C#'
p2602
asS'30026892'
p2603
(lp2604
S'Java'
p2605
aS'MySQL'
p2606
asS'30006600'
p2607
(lp2608
S'JSP'
p2609
aS'Java'
p2610
aS'Oracle 10g'
p2611
asS'30026891'
p2612
(lp2613
S'Java'
p2614
aS'MySQL'
p2615
asS'30031457'
p2616
(lp2617
S'Java'
p2618
asS'30031140'
p2619
(lp2620
S'Java'
p2621
asS'30031141'
p2622
(lp2623
S'Java'
p2624
asS'30029280'
p2625
(lp2626
S'Objective C'
p2627
aS'PhoneGap'
p2628
aS'iOS 4.0'
p2629
aS'iOS 5.0'
p2630
aS'iOS 6.0'
p2631
asS'30018003'
p2632
(lp2633
S'Java'
p2634
asS'30031768'
p2635
(lp2636
S'Java'
p2637
asS'30031769'
p2638
(lp2639
S'Java'
p2640
asS'30006864'
p2641
(lp2642
S'Java'
p2643
asS'30031760'
p2644
(lp2645
S'Java'
p2646
asS'30031762'
p2647
(lp2648
S'Java'
p2649
asS'30031763'
p2650
(lp2651
S'Java'
p2652
asS'30031764'
p2653
(lp2654
S'Java'
p2655
asS'30031765'
p2656
(lp2657
S'Java'
p2658
asS'30018662'
p2659
(lp2660
S'Java'
p2661
asS'30018663'
p2662
(lp2663
S'Java'
p2664
asS'30035803'
p2665
(lp2666
S'Java'
p2667
aS'MySQL'
p2668
aS'Spring'
p2669
asS'30008639'
p2670
(lp2671
S'CSS'
p2672
aS'HTML'
p2673
aS'JavaScript'
p2674
asS'30035805'
p2675
(lp2676
S'Other'
p2677
asS'30050581'
p2678
(lp2679
S'Not Specified'
p2680
asS'30008633'
p2681
(lp2682
S'Java'
p2683
aS'Struts'
p2684
asS'30008630'
p2685
(lp2686
S'EJB 3'
p2687
aS'J2EE'
p2688
aS'Java'
p2689
asS'30008631'
p2690
(lp2691
S'EJB 3'
p2692
aS'J2EE'
p2693
aS'Java'
p2694
asS'30008634'
p2695
(lp2696
S'Java'
p2697
aS'Struts'
p2698
asS'30025289'
p2699
(lp2700
S'CSS'
p2701
aS'HTML'
p2702
aS'JavaScript'
p2703
asS'30010506'
p2704
(lp2705
S'EJB 3'
p2706
aS'J2EE'
p2707
aS'Java'
p2708
asS'30007390'
p2709
(lp2710
S'Java'
p2711
aS'Struts'
p2712
asS'30031490'
p2713
(lp2714
S'Java'
p2715
asS'30006267'
p2716
(lp2717
S'Java'
p2718
asS'30006264'
p2719
(lp2720
S'Java'
p2721
asS'30034445'
p2722
(lp2723
S'Java'
p2724
asS'30047404'
p2725
(lp2726
S'API'
p2727
aS'MongoDB'
p2728
aS'Node.js'
p2729
asS'30019042'
p2730
(lp2731
S'Java'
p2732
asS'30019041'
p2733
(lp2734
S'Java'
p2735
asS'30008709'
p2736
(lp2737
S'Java'
p2738
asS'30007023'
p2739
(lp2740
S'Not Specified'
p2741
asS'30007024'
p2742
(lp2743
S'Not Specified'
p2744
asS'30031568'
p2745
(lp2746
S'C++'
p2747
aS'Java'
p2748
asS'30031567'
p2749
(lp2750
S'C++'
p2751
aS'Java'
p2752
asS'30031565'
p2753
(lp2754
S'Java'
p2755
asS'30008441'
p2756
(lp2757
S'Not Specified'
p2758
asS'30008440'
p2759
(lp2760
S'Not Specified'
p2761
asS'30008444'
p2762
(lp2763
S'.NET 3.5'
p2764
asS'30025636'
p2765
(lp2766
S'.NET 4.0'
p2767
aS'C#'
p2768
aS'SQL Server 2008'
p2769
aS'Windows Server'
p2770
asS'30036426'
p2771
(lp2772
S'Java'
p2773
aS'Python'
p2774
aS'SQL'
p2775
asS'30036429'
p2776
(lp2777
S'Java'
p2778
aS'NoSQL'
p2779
aS'Python'
p2780
aS'SQL'
p2781
asS'30015683'
p2782
(lp2783
S'Java'
p2784
aS'MySQL'
p2785
aS'Spring'
p2786
asS'30015685'
p2787
(lp2788
S'Java'
p2789
aS'MySQL'
p2790
aS'Spring'
p2791
asS'30015684'
p2792
(lp2793
S'Java'
p2794
aS'MySQL'
p2795
aS'Spring'
p2796
asS'30015687'
p2797
(lp2798
S'Java'
p2799
aS'MySQL'
p2800
aS'Spring'
p2801
asS'30015689'
p2802
(lp2803
S'Java'
p2804
aS'MySQL'
p2805
aS'Spring'
p2806
asS'30015688'
p2807
(lp2808
S'Java'
p2809
aS'MySQL'
p2810
aS'Spring'
p2811
asS'30036200'
p2812
(lp2813
S'Android'
p2814
aS'Java'
p2815
asS'30033144'
p2816
(lp2817
S'.NET 4.0'
p2818
asS'30025723'
p2819
(lp2820
S'Not Specified'
p2821
asS'30023495'
p2822
(lp2823
S'Java'
p2824
asS'30005723'
p2825
(lp2826
S'Java'
p2827
asS'30028354'
p2828
(lp2829
S'Not Specified'
p2830
asS'30015591'
p2831
(lp2832
S'.NET 3.5'
p2833
aS'C#'
p2834
asS'30006839'
p2835
(lp2836
S'Java'
p2837
aS'Struts'
p2838
asS'30018077'
p2839
(lp2840
S'CSS'
p2841
aS'HTML'
p2842
aS'JavaScript'
p2843
asS'30042127'
p2844
(lp2845
S'J2EE'
p2846
aS'JSP'
p2847
aS'Java'
p2848
asS'30014083'
p2849
(lp2850
S'Not Specified'
p2851
asS'30018273'
p2852
(lp2853
S'Java'
p2854
asS'30018272'
p2855
(lp2856
S'Java'
p2857
asS'30018271'
p2858
(lp2859
S'Java'
p2860
asS'30018270'
p2861
(lp2862
S'Java'
p2863
asS'30018277'
p2864
(lp2865
S'Java'
p2866
asS'30018276'
p2867
(lp2868
S'Java'
p2869
asS'30018275'
p2870
(lp2871
S'Java'
p2872
asS'30018274'
p2873
(lp2874
S'Java'
p2875
asS'30014574'
p2876
(lp2877
S'EJB'
p2878
aS'JPA'
p2879
aS'Java'
p2880
asS'30014576'
p2881
(lp2882
S'EJB'
p2883
aS'JPA'
p2884
aS'Java'
p2885
asS'30018278'
p2886
(lp2887
S'Java'
p2888
asS'30005653'
p2889
(lp2890
S'HTTP'
p2891
aS'JSON'
p2892
aS'Java'
p2893
asS'30026096'
p2894
(lp2895
S'Java'
p2896
asS'30026097'
p2897
(lp2898
S'Java'
p2899
asS'30026094'
p2900
(lp2901
S'Java'
p2902
asS'30005654'
p2903
(lp2904
S'Java'
p2905
asS'30026098'
p2906
(lp2907
S'Java'
p2908
asS'30026099'
p2909
(lp2910
S'Java'
p2911
asS'30027707'
p2912
(lp2913
S'Java'
p2914
asS'30027274'
p2915
(lp2916
S'Java'
p2917
asS'30027277'
p2918
(lp2919
S'Java'
p2920
asS'30027706'
p2921
(lp2922
S'Java'
p2923
asS'30027271'
p2924
(lp2925
S'Java'
p2926
asS'30027270'
p2927
(lp2928
S'Java'
p2929
asS'30027273'
p2930
(lp2931
S'HTML'
p2932
aS'Java'
p2933
asS'30027272'
p2934
(lp2935
S'Java'
p2936
asS'30027253'
p2937
(lp2938
S'Not Specified'
p2939
asS'30027073'
p2940
(lp2941
S'EJB 3'
p2942
aS'IBM DB2'
p2943
aS'IBM WebSphere Application Server'
p2944
aS'J2EE'
p2945
aS'Java'
p2946
aS'JavaScript'
p2947
asS'30027072'
p2948
(lp2949
S'CSS'
p2950
aS'HTML'
p2951
aS'JavaScript'
p2952
asS'30027071'
p2953
(lp2954
S'Not Specified'
p2955
asS'30027077'
p2956
(lp2957
S'IBM DB2'
p2958
aS'IBM WebSphere Application Server'
p2959
aS'J2EE'
p2960
aS'Java'
p2961
asS'30016950'
p2962
(lp2963
S'J2EE'
p2964
aS'Java'
p2965
aS'Web Services'
p2966
asS'30031962'
p2967
(lp2968
S'Java'
p2969
asS'30013685'
p2970
(lp2971
S'CSS'
p2972
aS'HTML'
p2973
aS'JavaScript'
p2974
asS'30008150'
p2975
(lp2976
S'.NET 3.5'
p2977
asS'30025509'
p2978
(lp2979
S'Java'
p2980
asS'30026153'
p2981
(lp2982
S'Java'
p2983
asS'30030964'
p2984
(lp2985
S'Java'
p2986
asS'30032433'
p2987
(lp2988
S'iOS 5.0'
p2989
asS'30032434'
p2990
(lp2991
S'iOS 5.0'
p2992
asS'30033434'
p2993
(lp2994
S'.NET'
p2995
asS'30033432'
p2996
(lp2997
S'.NET'
p2998
asS'30033430'
p2999
(lp3000
S'.NET'
p3001
asS'30008843'
p3002
(lp3003
S'CSS'
p3004
aS'HTML'
p3005
aS'JavaScript'
p3006
asS'30035576'
p3007
(lp3008
S'Java'
p3009
asS'30041486'
p3010
(lp3011
S'JavaScript'
p3012
aS'MongoDB'
p3013
aS'Node.js'
p3014
asS'30049493'
p3015
(lp3016
S'Angular.js'
p3017
aS'HTML5'
p3018
aS'HTTP'
p3019
aS'MongoDB'
p3020
aS'Node.js'
p3021
asS'30031090'
p3022
(lp3023
S'Java'
p3024
asS'30006075'
p3025
(lp3026
S'Java'
p3027
aS'SQL Server 2000'
p3028
asS'30031028'
p3029
(lp3030
S'Java'
p3031
asS'30027297'
p3032
(lp3033
S'Java'
p3034
asS'30027294'
p3035
(lp3036
S'JSF'
p3037
aS'Java'
p3038
asS'30028586'
p3039
(lp3040
S'CSS'
p3041
aS'HTML'
p3042
aS'JavaScript'
p3043
asS'30018891'
p3044
(lp3045
S'Java'
p3046
asS'30018890'
p3047
(lp3048
S'Not Specified'
p3049
asS'30028853'
p3050
(lp3051
S'Java'
p3052
asS'30012064'
p3053
(lp3054
S'Java'
p3055
asS'30012067'
p3056
(lp3057
S'CSS'
p3058
aS'HTML'
p3059
asS'30012061'
p3060
(lp3061
S'Java'
p3062
aS'Oracle 10g'
p3063
aS'Windows Server 2003'
p3064
asS'30012062'
p3065
(lp3066
S'Java'
p3067
aS'Oracle 10g'
p3068
aS'Windows Server 2003'
p3069
asS'30012063'
p3070
(lp3071
S'Java'
p3072
asS'30024038'
p3073
(lp3074
S'Java'
p3075
asS'30007250'
p3076
(lp3077
S'Hibernate'
p3078
aS'JSP'
p3079
aS'MySQL'
p3080
aS'Struts'
p3081
asS'30024030'
p3082
(lp3083
S'Java'
p3084
asS'30006387'
p3085
(lp3086
S'.NET 3.0'
p3087
aS'.NET 3.5'
p3088
aS'C#'
p3089
asS'30006678'
p3090
(lp3091
S'Java'
p3092
asS'30006676'
p3093
(lp3094
S'HTTP'
p3095
aS'Java'
p3096
aS'XML'
p3097
asS'30006816'
p3098
(lp3099
S'C#'
p3100
asS'30006817'
p3101
(lp3102
S'ASP.NET'
p3103
asS'30006810'
p3104
(lp3105
S'C#'
p3106
asS'30006811'
p3107
(lp3108
S'C#'
p3109
asS'30006813'
p3110
(lp3111
S'.NET 3.0'
p3112
aS'ASP.NET'
p3113
aS'C#'
p3114
asS'30031770'
p3115
(lp3116
S'Java'
p3117
asS'30029070'
p3118
(lp3119
S'.NET 4.0'
p3120
aS'C#'
p3121
aS'IIS'
p3122
aS'SQL Server 2008'
p3123
aS'Windows Communication Foundation'
p3124
asS'30008629'
p3125
(lp3126
S'JPA'
p3127
aS'Java'
p3128
aS'MySQL'
p3129
aS'Struts'
p3130
asS'30035872'
p3131
(lp3132
S'CSS'
p3133
aS'HTML5'
p3134
aS'JavaScript'
p3135
asS'30016067'
p3136
(lp3137
S'.NET 3.5'
p3138
aS'ASP.NET'
p3139
aS'C#'
p3140
aS'SQL Server 2008'
p3141
aS'Windows Communication Foundation'
p3142
aS'Windows Server'
p3143
asS'30016272'
p3144
(lp3145
S'HTML'
p3146
aS'JavaScript'
p3147
asS'30006496'
p3148
(lp3149
S'Not Specified'
p3150
asS'30006499'
p3151
(lp3152
S'J2EE'
p3153
aS'SQL Server'
p3154
aS'Spring'
p3155
asS'30016543'
p3156
(lp3157
S'.NET 3.5'
p3158
aS'C#'
p3159
aS'SQL Server 2008'
p3160
aS'Windows Communication Foundation'
p3161
asS'30016542'
p3162
(lp3163
S'.NET 3.5'
p3164
aS'C#'
p3165
aS'SQL Server 2008'
p3166
aS'Windows Communication Foundation'
p3167
aS'Windows Server'
p3168
asS'30016541'
p3169
(lp3170
S'.NET 3.5'
p3171
aS'C#'
p3172
aS'SQL Server 2008'
p3173
aS'Windows Communication Foundation'
p3174
aS'Windows Server'
p3175
asS'30016546'
p3176
(lp3177
S'.NET 3.5'
p3178
aS'C#'
p3179
aS'SQL Server 2008'
p3180
aS'Windows Communication Foundation'
p3181
aS'Windows Server'
p3182
asS'30016545'
p3183
(lp3184
S'.NET 3.5'
p3185
aS'C#'
p3186
aS'SQL Server 2008'
p3187
aS'Windows Communication Foundation'
p3188
aS'Windows Server'
p3189
asS'30016544'
p3190
(lp3191
S'.NET 3.5'
p3192
aS'C#'
p3193
aS'SQL Server 2008'
p3194
aS'Windows Communication Foundation'
p3195
asS'30034282'
p3196
(lp3197
S'Java'
p3198
asS'30019078'
p3199
(lp3200
S'Not Specified'
p3201
asS'30008717'
p3202
(lp3203
S'.NET 3.5'
p3204
asS'30025347'
p3205
(lp3206
S'Java'
p3207
asS'30030512'
p3208
(lp3209
S'Java'
p3210
asS'30028019'
p3211
(lp3212
S'.NET 4.0'
p3213
aS'C#'
p3214
asS'30031574'
p3215
(lp3216
S'IBM DB2'
p3217
aS'IBM WebSphere Application Server'
p3218
aS'Java'
p3219
asS'30007815'
p3220
(lp3221
S'.NET'
p3222
asS'30031576'
p3223
(lp3224
S'Java'
p3225
asS'30034053'
p3226
(lp3227
S'Java'
p3228
aS'Struts'
p3229
asS'30008435'
p3230
(lp3231
S'.NET 3.5'
p3232
asS'30023839'
p3233
(lp3234
S'.NET 4.0'
p3235
aS'C#'
p3236
aS'SQL Server 2008'
p3237
aS'Windows Communication Foundation'
p3238
asS'30030359'
p3239
(lp3240
S'J2EE'
p3241
aS'Java'
p3242
aS'Other'
p3243
aS'Spring'
p3244
asS'30023833'
p3245
(lp3246
S'.NET 4.0'
p3247
aS'C#'
p3248
aS'SQL Server 2008'
p3249
aS'Windows Communication Foundation'
p3250
aS'Windows Server'
p3251
asS'30045797'
p3252
(lp3253
g1191
asS'30010138'
p3254
(lp3255
S'J2EE'
p3256
asS'30009153'
p3257
(lp3258
S'.NET 3.5'
p3259
aS'Commerce Server 2009'
p3260
asS'30033151'
p3261
(lp3262
S'.NET'
p3263
asS'30009157'
p3264
(lp3265
S'.NET 3.5'
p3266
aS'ASP.NET Web Parts'
p3267
aS'Commerce Server 2009'
p3268
aS'SQL Server 2008'
p3269
aS'Sharepoint 3.0'
p3270
aS'Windows Server'
p3271
asS'30025754'
p3272
(lp3273
S'Java'
p3274
aS'Oracle 10g'
p3275
aS'Spring'
p3276
asS'30009159'
p3277
(lp3278
S'.NET 3.5'
p3279
aS'ASP.NET Web Parts'
p3280
aS'Commerce Server 2009'
p3281
aS'SQL Server 2008'
p3282
aS'Sharepoint 3.0'
p3283
aS'Windows Server'
p3284
asS'30025756'
p3285
(lp3286
S'CSS'
p3287
aS'HTML'
p3288
aS'Java'
p3289
aS'JavaScript'
p3290
aS'Oracle 10g'
p3291
aS'Spring'
p3292
asS'30005712'
p3293
(lp3294
S'Java'
p3295
asS'30015763'
p3296
(lp3297
S'.NET'
p3298
aS'.NET 3.5'
p3299
aS'JavaScript'
p3300
asS'30025198'
p3301
(lp3302
S'Java'
p3303
asS'30005714'
p3304
(lp3305
S'HTTP'
p3306
aS'JSON'
p3307
aS'Java'
p3308
asS'30036329'
p3309
(lp3310
S'HTML5'
p3311
aS'JavaScript'
p3312
aS'SQL Server 2008'
p3313
aS'Web Services'
p3314
asS'30006313'
p3315
(lp3316
S'.NET 3.0'
p3317
aS'.NET 3.5'
p3318
aS'C#'
p3319
asS'30026405'
p3320
(lp3321
S'Java'
p3322
aS'LDAP'
p3323
aS'Oracle 10g'
p3324
aS'Struts'
p3325
asS'30031983'
p3326
(lp3327
S'.NET 4.0'
p3328
aS'C#'
p3329
aS'Windows Communication Foundation'
p3330
asS'30014093'
p3331
(lp3332
S'Java'
p3333
asS'30049945'
p3334
(lp3335
S'Google API'
p3336
aS'Java'
p3337
aS'SQL Server'
p3338
asS'30049943'
p3339
(lp3340
S'AJAX'
p3341
aS'Google API'
p3342
aS'Java'
p3343
aS'SQL Server'
p3344
asS'30008093'
p3345
(lp3346
S'.NET 3.5'
p3347
asS'30033552'
p3348
(lp3349
S'.NET'
p3350
asS'30017171'
p3351
(lp3352
S'Not Specified'
p3353
asS'30017173'
p3354
(lp3355
S'CSS'
p3356
aS'HTML'
p3357
aS'JavaScript'
p3358
asS'30026662'
p3359
(lp3360
S'Java'
p3361
aS'MySQL'
p3362
asS'30027596'
p3363
(lp3364
S'Java'
p3365
asS'30030052'
p3366
(lp3367
S'Java'
p3368
asS'30028937'
p3369
(lp3370
S'Not Specified'
p3371
asS'30031978'
p3372
(lp3373
S'JavaScript'
p3374
aS'Other'
p3375
asS'30008161'
p3376
(lp3377
S'.NET 3.5'
p3378
asS'30027446'
p3379
(lp3380
S'HTML'
p3381
asS'30027447'
p3382
(lp3383
S'HTML'
p3384
asS'30027445'
p3385
(lp3386
S'HTML'
p3387
asS'30027449'
p3388
(lp3389
S'HTML'
p3390
asS'30043098'
p3391
(lp3392
S'MongoDB'
p3393
aS'Node.js'
p3394
asS'30032598'
p3395
(lp3396
S'CSS'
p3397
aS'HTML'
p3398
aS'JavaScript'
p3399
aS'Other'
p3400
asS'30024934'
p3401
(lp3402
S'J2EE'
p3403
aS'Java'
p3404
aS'Spring'
p3405
asS'30032596'
p3406
(lp3407
S'Java'
p3408
asS'30032597'
p3409
(lp3410
S'Java'
p3411
asS'30027626'
p3412
(lp3413
S'.NET 4.0'
p3414
aS'IIS'
p3415
aS'SQL Server 2008'
p3416
aS'Windows Communication Foundation'
p3417
asS'30009180'
p3418
(lp3419
S'CSS'
p3420
aS'HTML'
p3421
aS'JavaScript'
p3422
asS'30009410'
p3423
(lp3424
S'CSS'
p3425
aS'HTML'
p3426
aS'JavaScript'
p3427
asS'30032148'
p3428
(lp3429
S'Java'
p3430
asS'30017044'
p3431
(lp3432
S'Not Specified'
p3433
asS'30033422'
p3434
(lp3435
S'Not Specified'
p3436
asS'30033425'
p3437
(lp3438
S'.NET'
p3439
asS'30024809'
p3440
(lp3441
S'Java'
p3442
aS'Spring'
p3443
aS'Web Services'
p3444
asS'30033426'
p3445
(lp3446
S'.NET'
p3447
asS'30033429'
p3448
(lp3449
S'.NET'
p3450
asS'30033428'
p3451
(lp3452
S'.NET'
p3453
asS'30024803'
p3454
(lp3455
S'Java'
p3456
asS'30024801'
p3457
(lp3458
S'Java'
p3459
asS'30018938'
p3460
(lp3461
S'CSS'
p3462
aS'HTML'
p3463
aS'JavaScript'
p3464
asS'30018939'
p3465
(lp3466
S'CSS'
p3467
aS'HTML'
p3468
aS'JavaScript'
p3469
asS'30029866'
p3470
(lp3471
S'JavaScript'
p3472
asS'30014022'
p3473
(lp3474
S'IBM WebSphere Application Server'
p3475
aS'Java'
p3476
aS'Struts'
p3477
asS'30028590'
p3478
(lp3479
S'.NET 4.0'
p3480
aS'C#'
p3481
asS'30029868'
p3482
(lp3483
S'JavaScript'
p3484
asS'30009490'
p3485
(lp3486
S'Java'
p3487
aS'SQL Server'
p3488
asS'30029512'
p3489
(lp3490
S'PhoneGap'
p3491
asS'30029513'
p3492
(lp3493
S'PhoneGap'
p3494
asS'30028842'
p3495
(lp3496
S'HTML5'
p3497
asS'30028840'
p3498
(lp3499
S'HTML5'
p3500
asS'30028021'
p3501
(lp3502
S'.NET 4.0'
p3503
aS'C#'
p3504
asS'30028020'
p3505
(lp3506
S'.NET 4.0'
p3507
aS'C#'
p3508
asS'30028023'
p3509
(lp3510
S'.NET 4.0'
p3511
aS'C#'
p3512
asS'30028022'
p3513
(lp3514
S'.NET 4.0'
p3515
aS'C#'
p3516
asS'30028025'
p3517
(lp3518
S'.NET 4.0'
p3519
asS'30028027'
p3520
(lp3521
S'.NET 4.0'
p3522
asS'30028026'
p3523
(lp3524
S'.NET 4.0'
p3525
asS'30029888'
p3526
(lp3527
S'Java'
p3528
aS'Struts'
p3529
asS'30026344'
p3530
(lp3531
S'HTML'
p3532
aS'JavaScript'
p3533
asS'30029880'
p3534
(lp3535
S'CSS'
p3536
aS'HTML'
p3537
aS'JavaScript'
p3538
asS'30032404'
p3539
(lp3540
S'Not Specified'
p3541
asS'30029883'
p3542
(lp3543
S'Java'
p3544
asS'30029884'
p3545
(lp3546
S'Java'
p3547
asS'30029885'
p3548
(lp3549
S'Java'
p3550
asS'30023754'
p3551
(lp3552
S'HTML'
p3553
aS'Java'
p3554
aS'JavaScript'
p3555
asS'30017705'
p3556
(lp3557
S'Java'
p3558
asS'30006663'
p3559
(lp3560
S'Java'
p3561
asS'30006662'
p3562
(lp3563
S'Java'
p3564
asS'30034997'
p3565
(lp3566
S'.NET'
p3567
asS'30025995'
p3568
(lp3569
S'CSS'
p3570
aS'HTML'
p3571
aS'Java'
p3572
aS'JavaScript'
p3573
asS'30039311'
p3574
(lp3575
S'C++'
p3576
aS'Java'
p3577
asS'30012674'
p3578
(lp3579
S'CSS'
p3580
aS'HTML'
p3581
aS'JavaScript'
p3582
asS'30031743'
p3583
(lp3584
S'J2EE'
p3585
aS'JSON'
p3586
aS'Java'
p3587
aS'Spring'
p3588
asS'30031740'
p3589
(lp3590
S'Java'
p3591
asS'30029244'
p3592
(lp3593
S'Xcode'
p3594
asS'30029245'
p3595
(lp3596
S'PhoneGap'
p3597
aS'Xcode'
p3598
asS'30007426'
p3599
(lp3600
S'Java'
p3601
asS'30006487'
p3602
(lp3603
S'.NET 3.0'
p3604
asS'30006485'
p3605
(lp3606
S'Java'
p3607
asS'30006484'
p3608
(lp3609
S'Java'
p3610
asS'30008632'
p3611
(lp3612
S'Java'
p3613
aS'Struts'
p3614
asS'30008890'
p3615
(lp3616
S'Not Specified'
p3617
asS'30006243'
p3618
(lp3619
S'Java'
p3620
asS'30007133'
p3621
(lp3622
S'C#'
p3623
asS'30045653'
p3624
(lp3625
S'Android'
p3626
asS'30007814'
p3627
(lp3628
S'.NET'
p3629
asS'30031580'
p3630
(lp3631
S'JavaScript'
p3632
aS'Other'
p3633
asS'30030505'
p3634
(lp3635
S'Java'
p3636
asS'30030504'
p3637
(lp3638
S'Java'
p3639
asS'30007288'
p3640
(lp3641
S'.NET'
p3642
asS'30007289'
p3643
(lp3644
S'.NET'
p3645
asS'30007285'
p3646
(lp3647
S'.NET'
p3648
asS'30007282'
p3649
(lp3650
S'.NET'
p3651
asS'30007283'
p3652
(lp3653
S'.NET'
p3654
asS'30007280'
p3655
(lp3656
S'.NET'
p3657
asS'30007281'
p3658
(lp3659
S'.NET'
p3660
asS'30030236'
p3661
(lp3662
S'PhoneGap'
p3663
aS'Xcode'
p3664
asS'30024583'
p3665
(lp3666
S'Active Directory'
p3667
aS'Java'
p3668
aS'Oracle 10g'
p3669
aS'Spring'
p3670
asS'30018421'
p3671
(lp3672
S'J2EE'
p3673
aS'Java'
p3674
asS'30011321'
p3675
(lp3676
S'.NET 3.5'
p3677
asS'30024344'
p3678
(lp3679
S'J2EE'
p3680
aS'Spring'
p3681
aS'Struts'
p3682
asS'30005913'
p3683
(lp3684
S'Java'
p3685
aS'SQL Server'
p3686
asS'30005914'
p3687
(lp3688
S'Java'
p3689
aS'SQL Server'
p3690
aS'Spring'
p3691
asS'30030439'
p3692
(lp3693
S'JPA'
p3694
aS'Java'
p3695
asS'30030438'
p3696
(lp3697
S'JPA'
p3698
aS'Java'
p3699
asS'30030348'
p3700
(lp3701
S'J2EE'
p3702
aS'JSON'
p3703
aS'Java'
p3704
aS'Spring'
p3705
asS'30030345'
p3706
(lp3707
S'J2EE'
p3708
aS'Java'
p3709
aS'Spring'
p3710
asS'30030344'
p3711
(lp3712
S'J2EE'
p3713
aS'Java'
p3714
aS'Spring'
p3715
asS'30030346'
p3716
(lp3717
S'J2EE'
p3718
aS'JSON'
p3719
aS'Java'
p3720
aS'Spring'
p3721
asS'30023802'
p3722
(lp3723
S'HTML'
p3724
aS'Java'
p3725
aS'JavaScript'
p3726
asS'30005870'
p3727
(lp3728
S'HTML'
p3729
aS'Java'
p3730
aS'Struts'
p3731
aS'Web Services'
p3732
asS'30025189'
p3733
(lp3734
S'Java'
p3735
aS'Oracle 10g'
p3736
aS'Spring'
p3737
aS'Web Services'
p3738
asS'30025184'
p3739
(lp3740
S'JavaScript'
p3741
asS'30025186'
p3742
(lp3743
S'Java'
p3744
asS'30023115'
p3745
(lp3746
S'Java'
p3747
asS'30014555'
p3748
(lp3749
S'Java'
p3750
asS'30033526'
p3751
(lp3752
S'CSS'
p3753
aS'HTML'
p3754
aS'JavaScript'
p3755
aS'Other'
p3756
asS'30024560'
p3757
(lp3758
S'Java'
p3759
asS'30019816'
p3760
(lp3761
S'J2EE'
p3762
aS'Spring'
p3763
asS'30027054'
p3764
(lp3765
S'Perl'
p3766
asS'30049815'
p3767
(lp3768
S'AJAX'
p3769
aS'Google API'
p3770
aS'Hibernate'
p3771
aS'JPA'
p3772
aS'Java'
p3773
aS'Node.js'
p3774
aS'REST'
p3775
aS'SQL Server'
p3776
asS'30026505'
p3777
(lp3778
S'Java'
p3779
asS'30026506'
p3780
(lp3781
S'Java'
p3782
asS'30026507'
p3783
(lp3784
S'JSF'
p3785
aS'Java'
p3786
asS'30026056'
p3787
(lp3788
S'Java'
p3789
asS'30026057'
p3790
(lp3791
S'Perl'
p3792
asS'30026054'
p3793
(lp3794
S'Java'
p3795
aS'MySQL'
p3796
asS'30026052'
p3797
(lp3798
S'Java'
p3799
asS'30026053'
p3800
(lp3801
S'Not Specified'
p3802
asS'30008173'
p3803
(lp3804
S'.NET 3.5'
p3805
asS'30021882'
p3806
(lp3807
S'Java'
p3808
aS'MySQL'
p3809
asS'30027450'
p3810
(lp3811
S'Java'
p3812
asS'30033859'
p3813
(lp3814
S'Java'
p3815
aS'Spring'
p3816
asS'30032583'
p3817
(lp3818
S'J2EE'
p3819
aS'Java'
p3820
aS'Spring'
p3821
asS'30012869'
p3822
(lp3823
S'.NET 3.5'
p3824
aS'Commerce Server 2009'
p3825
aS'Windows Server'
p3826
asS'30032697'
p3827
(lp3828
S'EJB 3'
p3829
aS'IBM DB2'
p3830
aS'JDBC'
p3831
aS'Java'
p3832
asS'30031386'
p3833
(lp3834
S'Java'
p3835
asS'30028478'
p3836
(lp3837
S'Java'
p3838
asS'30023832'
p3839
(lp3840
S'.NET 4.0'
p3841
aS'C#'
p3842
aS'CSS'
p3843
aS'HTML'
p3844
aS'JavaScript'
p3845
asS'30006011'
p3846
(lp3847
S'JavaScript'
p3848
asS'30006012'
p3849
(lp3850
S'JSP'
p3851
aS'Java'
p3852
aS'Spring'
p3853
asS'30006013'
p3854
(lp3855
S'JSP'
p3856
aS'Java'
p3857
aS'Spring'
p3858
asS'30029877'
p3859
(lp3860
S'Not Specified'
p3861
asS'30029872'
p3862
(lp3863
S'JavaScript'
p3864
aS'SQL'
p3865
asS'30048494'
p3866
(lp3867
S'Node.js'
p3868
asS'30048493'
p3869
(lp3870
S'Node.js'
p3871
asS'30048491'
p3872
(lp3873
S'Node.js'
p3874
asS'30032078'
p3875
(lp3876
S'Java'
p3877
asS'30023741'
p3878
(lp3879
S'Java'
p3880
asS'30023740'
p3881
(lp3882
S'Java'
p3883
asS'30019478'
p3884
(lp3885
S'Java'
p3886
asS'30006121'
p3887
(lp3888
S'JSP'
p3889
aS'Java'
p3890
aS'Spring'
p3891
asS'30006650'
p3892
(lp3893
S'.NET 3.5'
p3894
aS'C#'
p3895
aS'Windows Communication Foundation'
p3896
asS'30009606'
p3897
(lp3898
S'CSS'
p3899
aS'HTML'
p3900
aS'JavaScript'
p3901
asS'30029472'
p3902
(lp3903
S'Xcode'
p3904
asS'30034501'
p3905
(lp3906
S'.NET'
p3907
asS'30034507'
p3908
(lp3909
S'Ruby'
p3910
asS'30031757'
p3911
(lp3912
S'Java'
p3913
asS'30031756'
p3914
(lp3915
S'Java'
p3916
asS'30031758'
p3917
(lp3918
S'Java'
p3919
asS'30029098'
p3920
(lp3921
S'CSS'
p3922
aS'HTML'
p3923
aS'JavaScript'
p3924
asS'30028301'
p3925
(lp3926
S'Java'
p3927
asS'30028307'
p3928
(lp3929
S'Java'
p3930
aS'MySQL'
p3931
asS'30050710'
p3932
(lp3933
S'Angular.js'
p3934
asS'30008888'
p3935
(lp3936
S'JPA'
p3937
aS'Java'
p3938
aS'MySQL'
p3939
asS'30007635'
p3940
(lp3941
S'.NET'
p3942
asS'30007634'
p3943
(lp3944
S'.NET'
p3945
asS'30007633'
p3946
(lp3947
S'.NET'
p3948
asS'30019360'
p3949
(lp3950
S'AJAX'
p3951
aS'HTML'
p3952
aS'Java'
p3953
aS'JavaScript'
p3954
aS'Spring'
p3955
aS'Web Services'
p3956
asS'30016565'
p3957
(lp3958
S'.NET 3.5'
p3959
aS'ASP.NET'
p3960
aS'C#'
p3961
aS'CSS'
p3962
aS'JavaScript'
p3963
aS'SQL Server 2008'
p3964
asS'30017900'
p3965
(lp3966
S'Not Specified'
p3967
asS'30013156'
p3968
(lp3969
S'Java'
p3970
aS'Oracle 10g'
p3971
aS'Spring'
p3972
aS'Struts'
p3973
aS'Windows Server 2003'
p3974
asS'30019366'
p3975
(lp3976
S'Hibernate'
p3977
aS'Java'
p3978
aS'Oracle 10g'
p3979
asS'30016218'
p3980
(lp3981
S'Not Specified'
p3982
asS'30038186'
p3983
(lp3984
S'HTML5'
p3985
aS'JavaScript'
p3986
aS'SQL Server 2008'
p3987
aS'Web Services'
p3988
asS'30006908'
p3989
(lp3990
S'C#'
p3991
asS'30006909'
p3992
(lp3993
S'.NET 3.5'
p3994
aS'C#'
p3995
aS'SQL Server'
p3996
aS'Windows Communication Foundation'
p3997
asS'30006907'
p3998
(lp3999
S'C#'
p4000
asS'30006904'
p4001
(lp4002
S'Java'
p4003
asS'30006902'
p4004
(lp4005
S'JDBC'
p4006
aS'Java'
p4007
aS'Java Application'
p4008
aS'XML'
p4009
asS'30006903'
p4010
(lp4011
S'Java'
p4012
asS'30034432'
p4013
(lp4014
S'Not Specified'
p4015
asS'30034439'
p4016
(lp4017
S'Android'
p4018
aS'Java'
p4019
aS'Other'
p4020
asS'30034438'
p4021
(lp4022
S'Not Specified'
p4023
asS'30025363'
p4024
(lp4025
S'Java'
p4026
asS'30025366'
p4027
(lp4028
S'Not Specified'
p4029
asS'30007292'
p4030
(lp4031
S'.NET'
p4032
asS'30007831'
p4033
(lp4034
S'.NET 3.5'
p4035
aS'C#'
p4036
asS'30007525'
p4037
(lp4038
S'.NET'
p4039
asS'30006832'
p4040
(lp4041
S'ASP.NET'
p4042
asS'30006830'
p4043
(lp4044
S'Java'
p4045
asS'30038691'
p4046
(lp4047
S'Java'
p4048
aS'MySQL'
p4049
aS'NoSQL'
p4050
aS'Python'
p4051
aS'Redis'
p4052
asS'30025428'
p4053
(lp4054
S'Java'
p4055
asS'30005713'
p4056
(lp4057
S'HTTP'
p4058
aS'Java'
p4059
asS'30024591'
p4060
(lp4061
S'J2EE'
p4062
aS'Java'
p4063
aS'Spring'
p4064
asS'30024590'
p4065
(lp4066
S'J2EE'
p4067
aS'Java'
p4068
aS'Spring'
p4069
asS'30024357'
p4070
(lp4071
S'Java'
p4072
asS'30024359'
p4073
(lp4074
S'Java'
p4075
asS'30024358'
p4076
(lp4077
S'Java'
p4078
asS'30005907'
p4079
(lp4080
S'HTML'
p4081
aS'Java'
p4082
aS'JavaScript'
p4083
aS'Spring'
p4084
aS'Struts'
p4085
asS'30023817'
p4086
(lp4087
S'Not Specified'
p4088
asS'30023818'
p4089
(lp4090
S'Not Specified'
p4091
asS'30009176'
p4092
(lp4093
S'.NET 3.5'
p4094
aS'ASP.NET Web Parts'
p4095
aS'Commerce Server 2009'
p4096
aS'SQL Server 2008'
p4097
aS'Sharepoint 3.0'
p4098
aS'Windows Server'
p4099
asS'30009174'
p4100
(lp4101
S'.NET 3.5'
p4102
aS'ASP.NET Web Parts'
p4103
aS'Commerce Server 2009'
p4104
aS'SQL Server 2008'
p4105
aS'Sharepoint 3.0'
p4106
aS'Windows Server'
p4107
asS'30013386'
p4108
(lp4109
S'Java'
p4110
aS'Oracle 10g'
p4111
aS'Spring'
p4112
aS'Struts'
p4113
asS'30009172'
p4114
(lp4115
S'.NET 3.5'
p4116
aS'ASP.NET Web Parts'
p4117
aS'Commerce Server 2009'
p4118
aS'SQL Server 2008'
p4119
aS'Sharepoint 3.0'
p4120
aS'Windows Server'
p4121
asS'30009170'
p4122
(lp4123
S'.NET 3.5'
p4124
aS'ASP.NET Web Parts'
p4125
aS'Commerce Server 2009'
p4126
aS'SQL Server 2008'
p4127
aS'Sharepoint 3.0'
p4128
aS'Windows Server'
p4129
asS'30009178'
p4130
(lp4131
S'.NET 3.5'
p4132
aS'ASP.NET Web Parts'
p4133
aS'Commerce Server 2009'
p4134
aS'SQL Server'
p4135
aS'Windows Server'
p4136
asS'30025176'
p4137
(lp4138
S'Java'
p4139
asS'30025248'
p4140
(lp4141
S'Java'
p4142
asS'30023107'
p4143
(lp4144
S'Java'
p4145
asS'30009280'
p4146
(lp4147
S'.NET 3.5'
p4148
asS'30036163'
p4149
(lp4150
S'HTML5'
p4151
asS'30036168'
p4152
(lp4153
S'ASP.NET'
p4154
asS'30015328'
p4155
(lp4156
S'EJB'
p4157
aS'JPA'
p4158
aS'Java'
p4159
asS'30017962'
p4160
(lp4161
S'Java'
p4162
asS'30013385'
p4163
(lp4164
S'Java'
p4165
aS'Oracle 10g'
p4166
aS'Spring'
p4167
aS'Struts'
p4168
asS'30026510'
p4169
(lp4170
S'Perl'
p4171
asS'30033195'
p4172
(lp4173
S'HTTP'
p4174
asS'30033197'
p4175
(lp4176
S'HTTP'
p4177
asS'30033196'
p4178
(lp4179
S'Ruby'
p4180
asS'30033199'
p4181
(lp4182
S'Java'
p4183
asS'30033198'
p4184
(lp4185
S'Ruby'
p4186
asS'30026195'
p4187
(lp4188
S'Java'
p4189
aS'MySQL'
p4190
asS'30033849'
p4191
(lp4192
S'JavaScript'
p4193
asS'30032865'
p4194
(lp4195
S'Java'
p4196
asS'30032869'
p4197
(lp4198
S'HTML'
p4199
aS'HTML5'
p4200
aS'Java'
p4201
aS'JavaScript'
p4202
aS'MySQL'
p4203
asS'30030792'
p4204
(lp4205
S'Not Specified'
p4206
asS'30010519'
p4207
(lp4208
S'.NET 3.5'
p4209
aS'ASP.NET Web Parts'
p4210
aS'Commerce Server 2009'
p4211
aS'SQL Server 2008'
p4212
aS'Sharepoint 3.0'
p4213
aS'Windows Server'
p4214
asS'30024823'
p4215
(lp4216
S'Java'
p4217
asS'30024822'
p4218
(lp4219
S'Java'
p4220
asS'30018164'
p4221
(lp4222
S'Java'
p4223
asS'30018163'
p4224
(lp4225
S'Java'
p4226
asS'30018162'
p4227
(lp4228
S'Java'
p4229
asS'30012304'
p4230
(lp4231
S'COBOL'
p4232
aS'IBM Rational Application Developer'
p4233
aS'Java'
p4234
aS'Spring'
p4235
aS'Web Services'
p4236
asS'30012306'
p4237
(lp4238
S'COBOL'
p4239
aS'IBM Rational Application Developer'
p4240
aS'Java'
p4241
aS'Web Services'
p4242
asS'30041781'
p4243
(lp4244
S'CSS'
p4245
aS'HTML'
p4246
aS'JavaScript'
p4247
aS'MongoDB'
p4248
aS'Node.js'
p4249
asS'30024914'
p4250
(lp4251
S'Java'
p4252
aS'Oracle 10g'
p4253
aS'SQL'
p4254
aS'Spring'
p4255
asS'30049198'
p4256
(lp4257
S'Angular.js'
p4258
aS'HTML5'
p4259
aS'Node.js'
p4260
asS'30008969'
p4261
(lp4262
S'.NET 3.5'
p4263
asS'30017775'
p4264
(lp4265
S'CSS'
p4266
aS'HTML'
p4267
aS'JavaScript'
p4268
asS'30006133'
p4269
(lp4270
S'Java'
p4271
aS'SQL Server 2000'
p4272
asS'30031109'
p4273
(lp4274
S'Java'
p4275
asS'30031104'
p4276
(lp4277
S'Java'
p4278
asS'30031105'
p4279
(lp4280
S'Java'
p4281
asS'30017485'
p4282
(lp4283
S'CSS'
p4284
aS'HTML'
p4285
aS'Java'
p4286
aS'JavaScript'
p4287
asS'30032718'
p4288
(lp4289
S'Java'
p4290
asS'30029408'
p4291
(lp4292
S'Not Specified'
p4293
asS'30032712'
p4294
(lp4295
S'Java'
p4296
asS'30017379'
p4297
(lp4298
S'J2EE'
p4299
aS'Java'
p4300
aS'JavaScript'
p4301
asS'30031721'
p4302
(lp4303
S'Java'
p4304
asS'30019798'
p4305
(lp4306
S'Java'
p4307
asS'30049224'
p4308
(lp4309
S'Angular.js'
p4310
aS'HTML5'
p4311
aS'Node.js'
p4312
asS'30034539'
p4313
(lp4314
S'Not Specified'
p4315
asS'30007192'
p4316
(lp4317
S'.NET'
p4318
asS'30007190'
p4319
(lp4320
S'.NET'
p4321
asS'30007197'
p4322
(lp4323
S'.NET 3.5'
p4324
asS'30007195'
p4325
(lp4326
S'ASP.NET'
p4327
aS'C++'
p4328
aS'SQL Server'
p4329
aS'Windows Communication Foundation'
p4330
asS'30023645'
p4331
(lp4332
S'Java'
p4333
aS'JavaScript'
p4334
asS'30007198'
p4335
(lp4336
S'.NET'
p4337
asS'30007354'
p4338
(lp4339
S'.NET 3.5'
p4340
aS'ADO.NET'
p4341
asS'30007355'
p4342
(lp4343
S'.NET 3.5'
p4344
aS'C#'
p4345
asS'30006735'
p4346
(lp4347
S'C#'
p4348
asS'30006225'
p4349
(lp4350
S'EJB 3'
p4351
aS'Hibernate'
p4352
aS'J2EE'
p4353
aS'JPA'
p4354
aS'Java'
p4355
aS'MySQL'
p4356
asS'30006220'
p4357
(lp4358
S'.NET 2.0'
p4359
aS'.NET 3.0'
p4360
aS'.NET 3.5'
p4361
aS'ADO.NET'
p4362
aS'ASP.NET'
p4363
aS'C#'
p4364
asS'30017575'
p4365
(lp4366
S'J2EE'
p4367
aS'Java'
p4368
asS'30005789'
p4369
(lp4370
S'AJAX'
p4371
aS'HTML'
p4372
aS'JSON'
p4373
aS'Java'
p4374
aS'Spring'
p4375
aS'Struts'
p4376
aS'Web Services'
p4377
asS'30017577'
p4378
(lp4379
S'J2EE'
p4380
aS'Java'
p4381
asS'30017571'
p4382
(lp4383
S'J2EE'
p4384
aS'Java'
p4385
asS'30017573'
p4386
(lp4387
S'J2EE'
p4388
aS'Java'
p4389
asS'30017572'
p4390
(lp4391
S'J2EE'
p4392
aS'Java'
p4393
asS'30031439'
p4394
(lp4395
S'JSP'
p4396
aS'Java'
p4397
aS'Spring'
p4398
asS'30006917'
p4399
(lp4400
S'.NET 3.5'
p4401
aS'C#'
p4402
aS'SQL Server'
p4403
aS'Windows Communication Foundation'
p4404
asS'30006918'
p4405
(lp4406
S'Java'
p4407
asS'30031434'
p4408
(lp4409
S'HTML5'
p4410
aS'JSP'
p4411
aS'Java'
p4412
aS'JavaScript'
p4413
aS'MySQL'
p4414
asS'30024217'
p4415
(lp4416
S'J2EE'
p4417
aS'Java'
p4418
asS'30024215'
p4419
(lp4420
S'Java'
p4421
asS'30008740'
p4422
(lp4423
S'Java'
p4424
asS'30025318'
p4425
(lp4426
S'Hibernate'
p4427
aS'Java'
p4428
aS'Spring'
p4429
asS'30025319'
p4430
(lp4431
S'Hibernate'
p4432
aS'Java'
p4433
aS'Spring'
p4434
asS'30050632'
p4435
(lp4436
S'Angular.js'
p4437
asS'30007511'
p4438
(lp4439
S'CSS'
p4440
aS'HTML'
p4441
aS'JavaScript'
p4442
asS'30016352'
p4443
(lp4444
S'Java'
p4445
aS'Oracle 10g'
p4446
aS'Struts'
p4447
asS'30031459'
p4448
(lp4449
S'Java'
p4450
asS'30011342'
p4451
(lp4452
S'CSS'
p4453
aS'HTML'
p4454
aS'JavaScript'
p4455
asS'30024366'
p4456
(lp4457
S'Java'
p4458
aS'MySQL'
p4459
aS'Spring'
p4460
asS'30024360'
p4461
(lp4462
S'Java'
p4463
asS'30005932'
p4464
(lp4465
S'EJB 3'
p4466
aS'Hibernate'
p4467
aS'J2EE'
p4468
aS'Java'
p4469
asS'30005930'
p4470
(lp4471
S'EJB 3'
p4472
aS'Hibernate'
p4473
aS'J2EE'
p4474
aS'Java'
p4475
asS'30007171'
p4476
(lp4477
S'CSS'
p4478
aS'HTML'
p4479
aS'JavaScript'
p4480
asS'30009168'
p4481
(lp4482
S'.NET 3.5'
p4483
aS'ASP.NET Web Parts'
p4484
aS'Commerce Server 2009'
p4485
aS'SQL Server 2008'
p4486
aS'Sharepoint 3.0'
p4487
aS'Windows Server'
p4488
asS'30009161'
p4489
(lp4490
S'.NET 3.5'
p4491
aS'ASP.NET Web Parts'
p4492
aS'Commerce Server 2009'
p4493
aS'SQL Server 2008'
p4494
aS'Sharepoint 3.0'
p4495
aS'Windows Server'
p4496
asS'30009160'
p4497
(lp4498
S'.NET 3.5'
p4499
aS'ASP.NET Web Parts'
p4500
aS'Commerce Server 2009'
p4501
aS'SQL Server 2008'
p4502
aS'Sharepoint 3.0'
p4503
aS'Windows Server'
p4504
asS'30009166'
p4505
(lp4506
S'.NET 3.5'
p4507
aS'ASP.NET Web Parts'
p4508
aS'Commerce Server 2009'
p4509
aS'SQL Server 2008'
p4510
aS'Sharepoint 3.0'
p4511
aS'Windows Server'
p4512
asS'30014332'
p4513
(lp4514
S'IBM DB2'
p4515
aS'IBM WebSphere Application Server'
p4516
aS'J2EE'
p4517
aS'Java'
p4518
aS'Struts'
p4519
asS'30014331'
p4520
(lp4521
S'IBM DB2'
p4522
aS'IBM WebSphere Application Server'
p4523
aS'J2EE'
p4524
aS'Java'
p4525
aS'Struts'
p4526
asS'30006640'
p4527
(lp4528
S'UML'
p4529
aS'Use Case Diagrams (TCUML)'
p4530
aS'Word/Rich Text'
p4531
asS'30025163'
p4532
(lp4533
S'JavaScript'
p4534
asS'30043217'
p4535
(lp4536
S'CSS'
p4537
aS'HTML'
p4538
aS'JavaScript'
p4539
aS'MongoDB'
p4540
aS'Node.js'
p4541
asS'30043216'
p4542
(lp4543
g1191
asS'30005614'
p4544
(lp4545
S'HTTP'
p4546
aS'JSON'
p4547
aS'Java'
p4548
asS'30005613'
p4549
(lp4550
S'HTTP'
p4551
aS'JSON'
p4552
aS'Java'
p4553
asS'30005612'
p4554
(lp4555
S'HTTP'
p4556
aS'Java'
p4557
asS'30005611'
p4558
(lp4559
S'Java'
p4560
asS'30005610'
p4561
(lp4562
S'Java'
p4563
asS'30025094'
p4564
(lp4565
S'Java'
p4566
asS'30025093'
p4567
(lp4568
S'Java'
p4569
asS'30024549'
p4570
(lp4571
S'J2EE'
p4572
aS'Java'
p4573
asS'30014599'
p4574
(lp4575
S'EJB 3'
p4576
aS'IBM WebSphere Application Server'
p4577
aS'JPA'
p4578
aS'Spring'
p4579
asS'30014596'
p4580
(lp4581
S'EJB 3'
p4582
aS'IBM WebSphere Application Server'
p4583
aS'JPA'
p4584
asS'30014597'
p4585
(lp4586
S'EJB 3'
p4587
aS'IBM WebSphere Application Server'
p4588
aS'JPA'
p4589
asS'30050831'
p4590
(lp4591
S'Angular.js'
p4592
asS'30050830'
p4593
(lp4594
S'Angular.js'
p4595
asS'30031928'
p4596
(lp4597
S'Java'
p4598
asS'30031920'
p4599
(lp4600
S'CSS'
p4601
aS'HTML5'
p4602
aS'JavaScript'
p4603
asS'30014119'
p4604
(lp4605
S'.NET'
p4606
aS'AJAX'
p4607
aS'ASP.NET'
p4608
aS'C#'
p4609
asS'30025548'
p4610
(lp4611
S'CSS'
p4612
aS'HTML'
p4613
aS'Java'
p4614
aS'JavaScript'
p4615
aS'Oracle 10g'
p4616
asS'30025541'
p4617
(lp4618
S'Java'
p4619
asS'30025543'
p4620
(lp4621
S'Java'
p4622
asS'30008351'
p4623
(lp4624
S'.NET 3.5'
p4625
aS'Windows Communication Foundation'
p4626
asS'30008350'
p4627
(lp4628
S'.NET 3.5'
p4629
aS'Windows Communication Foundation'
p4630
asS'30033610'
p4631
(lp4632
S'CSS'
p4633
aS'HTML'
p4634
aS'JavaScript'
p4635
aS'Other'
p4636
asS'30025474'
p4637
(lp4638
S'Java'
p4639
asS'30035618'
p4640
(lp4641
S'CSS'
p4642
aS'HTML'
p4643
aS'JavaScript'
p4644
asS'30035619'
p4645
(lp4646
S'CSS'
p4647
aS'HTML'
p4648
aS'JavaScript'
p4649
asS'30033278'
p4650
(lp4651
S'Java'
p4652
asS'30025439'
p4653
(lp4654
S'HTML'
p4655
asS'30033277'
p4656
(lp4657
S'Java'
p4658
asS'30032490'
p4659
(lp4660
S'CSS'
p4661
aS'HTML5'
p4662
aS'JavaScript'
p4663
asS'30028784'
p4664
(lp4665
S'Java'
p4666
asS'30028786'
p4667
(lp4668
S'Java'
p4669
asS'30028780'
p4670
(lp4671
S'Java'
p4672
asS'30028781'
p4673
(lp4674
S'Java'
p4675
asS'30006038'
p4676
(lp4677
S'EJB 3'
p4678
aS'Hibernate'
p4679
aS'Java'
p4680
asS'30028788'
p4681
(lp4682
S'Java'
p4683
asS'30035050'
p4684
(lp4685
S'Python'
p4686
asS'30013269'
p4687
(lp4688
S'HTML'
p4689
aS'Java'
p4690
asS'30048346'
p4691
(lp4692
S'Angular.js'
p4693
asS'30013260'
p4694
(lp4695
S'CSS'
p4696
aS'HTML'
p4697
aS'JavaScript'
p4698
asS'30032015'
p4699
(lp4700
S'JavaScript'
p4701
aS'Other'
p4702
asS'30024968'
p4703
(lp4704
S'Java'
p4705
asS'30024969'
p4706
(lp4707
S'Java'
p4708
asS'30024966'
p4709
(lp4710
S'Java'
p4711
asS'30024967'
p4712
(lp4713
S'Java'
p4714
asS'30029304'
p4715
(lp4716
S'JavaScript'
p4717
asS'30007210'
p4718
(lp4719
S'.NET'
p4720
asS'30006107'
p4721
(lp4722
S'JavaScript'
p4723
asS'30029380'
p4724
(lp4725
S'.NET 4.0'
p4726
aS'C#'
p4727
asS'30006108'
p4728
(lp4729
S'Java'
p4730
aS'SQL Server 2000'
p4731
asS'30042957'
p4732
(lp4733
S'CSS'
p4734
aS'HTML'
p4735
aS'JavaScript'
p4736
aS'MongoDB'
p4737
aS'Node.js'
p4738
asS'30006698'
p4739
(lp4740
S'C#'
p4741
asS'30006696'
p4742
(lp4743
S'Struts'
p4744
asS'30006697'
p4745
(lp4746
S'Struts'
p4747
asS'30025941'
p4748
(lp4749
S'Not Specified'
p4750
asS'30025943'
p4751
(lp4752
S'CSS'
p4753
aS'HTML'
p4754
aS'JavaScript'
p4755
asS'30019523'
p4756
(lp4757
S'Java'
p4758
asS'30025945'
p4759
(lp4760
S'Not Specified'
p4761
asS'30025947'
p4762
(lp4763
S'.NET'
p4764
aS'C#'
p4765
asS'30025948'
p4766
(lp4767
S'.NET 3.5'
p4768
asS'30021424'
p4769
(lp4770
S'Java'
p4771
asS'30023498'
p4772
(lp4773
S'JSON'
p4774
aS'Java'
p4775
asS'30006744'
p4776
(lp4777
S'Java'
p4778
aS'Struts'
p4779
asS'30007619'
p4780
(lp4781
S'.NET 3.5'
p4782
aS'C#'
p4783
aS'HTML'
p4784
aS'JavaScript'
p4785
asS'30006743'
p4786
(lp4787
S'.NET 3.0'
p4788
aS'.NET 3.5'
p4789
aS'ASP.NET'
p4790
aS'C#'
p4791
aS'SQL Server 2000'
p4792
aS'Windows Communication Foundation'
p4793
asS'30006589'
p4794
(lp4795
S'JSP'
p4796
aS'Java'
p4797
aS'SQL Server'
p4798
asS'30006582'
p4799
(lp4800
S'.NET 3.5'
p4801
aS'C#'
p4802
aS'Windows Communication Foundation'
p4803
asS'30049437'
p4804
(lp4805
S'Angular.js'
p4806
aS'HTML5'
p4807
asS'30006965'
p4808
(lp4809
S'MySQL'
p4810
aS'Ruby on Rails'
p4811
asS'30031428'
p4812
(lp4813
S'JavaScript'
p4814
aS'Other'
p4815
asS'30007984'
p4816
(lp4817
S'.NET 3.5'
p4818
asS'30022835'
p4819
(lp4820
S'CSS'
p4821
aS'HTML'
p4822
aS'JavaScript'
p4823
asS'30029123'
p4824
(lp4825
S'.NET 4.0'
p4826
aS'C#'
p4827
asS'30024209'
p4828
(lp4829
S'Java'
p4830
asS'30031207'
p4831
(lp4832
S'Java'
p4833
asS'30025304'
p4834
(lp4835
S'Java'
p4836
asS'30025303'
p4837
(lp4838
S'Java'
p4839
asS'30025302'
p4840
(lp4841
S'Java'
p4842
asS'30025301'
p4843
(lp4844
S'Java'
p4845
asS'30025300'
p4846
(lp4847
S'Java'
p4848
asS'30007500'
p4849
(lp4850
S'.NET 3.5'
p4851
aS'C#'
p4852
asS'30007502'
p4853
(lp4854
S'Java'
p4855
aS'Struts'
p4856
asS'30007507'
p4857
(lp4858
S'.NET 3.5'
p4859
aS'C#'
p4860
asS'30010917'
p4861
(lp4862
S'.NET 3.5'
p4863
aS'ASP.NET Web Parts'
p4864
aS'Commerce Server 2009'
p4865
aS'SQL Server 2008'
p4866
aS'Sharepoint 3.0'
p4867
aS'Windows Server'
p4868
asS'30006362'
p4869
(lp4870
S'Java'
p4871
asS'30006363'
p4872
(lp4873
S'.NET 3.0'
p4874
aS'.NET 3.5'
p4875
asS'30036564'
p4876
(lp4877
S'HTML5'
p4878
aS'JavaScript'
p4879
aS'SQL Server 2008'
p4880
asS'30017574'
p4881
(lp4882
S'J2EE'
p4883
aS'Java'
p4884
asS'30025238'
p4885
(lp4886
S'Java'
p4887
aS'Oracle 10g'
p4888
aS'Spring'
p4889
asS'30005929'
p4890
(lp4891
S'EJB 3'
p4892
aS'Hibernate'
p4893
aS'J2EE'
p4894
aS'Java'
p4895
asS'30025237'
p4896
(lp4897
S'JavaScript'
p4898
asS'30007161'
p4899
(lp4900
S'Java'
p4901
asS'30005823'
p4902
(lp4903
S'J2EE'
p4904
aS'Java'
p4905
aS'SQL Server 2000'
p4906
asS'30025152'
p4907
(lp4908
S'Java'
p4909
asS'30024650'
p4910
(lp4911
S'CSS'
p4912
aS'HTML'
p4913
aS'JavaScript'
p4914
asS'30048908'
p4915
(lp4916
S'Angular.js'
p4917
aS'HTML5'
p4918
aS'Node.js'
p4919
asS'30028733'
p4920
(lp4921
S'Java'
p4922
asS'30024651'
p4923
(lp4924
S'Java'
p4925
aS'Spring'
p4926
asS'30018202'
p4927
(lp4928
S'Java'
p4929
asS'30018200'
p4930
(lp4931
S'Java'
p4932
asS'30018201'
p4933
(lp4934
S'Java'
p4935
asS'30018206'
p4936
(lp4937
S'Java'
p4938
asS'30018207'
p4939
(lp4940
S'Java'
p4941
asS'30018204'
p4942
(lp4943
S'Java'
p4944
asS'30027696'
p4945
(lp4946
S'Java'
p4947
asS'30014611'
p4948
(lp4949
S'EJB 3'
p4950
aS'IBM DB2'
p4951
aS'J2EE'
p4952
asS'30018208'
p4953
(lp4954
S'Java'
p4955
asS'30018209'
p4956
(lp4957
S'Java'
p4958
asS'30027695'
p4959
(lp4960
S'Java'
p4961
asS'30047112'
p4962
(lp4963
S'Android'
p4964
asS'30047113'
p4965
(lp4966
S'Android'
p4967
asS'30008216'
p4968
(lp4969
S'.NET 3.5'
p4970
asS'30017909'
p4971
(lp4972
S'Java'
p4973
aS'JavaScript'
p4974
asS'30024550'
p4975
(lp4976
S'J2EE'
p4977
aS'Java'
p4978
asS'30015180'
p4979
(lp4980
S'EJB 3'
p4981
aS'IBM DB2'
p4982
aS'IBM WebSphere Application Server'
p4983
aS'JPA'
p4984
aS'Spring'
p4985
asS'30014859'
p4986
(lp4987
S'Blackberry SDK'
p4988
aS'Java'
p4989
asS'30032243'
p4990
(lp4991
S'EJB 3'
p4992
aS'IBM DB2'
p4993
aS'IBM WebSphere Application Server'
p4994
aS'J2EE'
p4995
aS'Java'
p4996
asS'30028295'
p4997
(lp4998
S'Not Specified'
p4999
asS'30032245'
p5000
(lp5001
S'CSS'
p5002
aS'HTML'
p5003
aS'JavaScript'
p5004
asS'30031934'
p5005
(lp5006
S'Java'
p5007
asS'30031936'
p5008
(lp5009
S'CSS'
p5010
aS'HTML'
p5011
aS'JavaScript'
p5012
asS'30025257'
p5013
(lp5014
S'Java'
p5015
asS'30008324'
p5016
(lp5017
S'.NET 3.5'
p5018
asS'30008325'
p5019
(lp5020
S'.NET 3.5'
p5021
asS'30008320'
p5022
(lp5023
S'.NET 3.5'
p5024
asS'30008321'
p5025
(lp5026
S'.NET 3.5'
p5027
asS'30008323'
p5028
(lp5029
S'.NET 3.5'
p5030
asS'30015989'
p5031
(lp5032
S'.NET 3.5'
p5033
aS'HTML'
p5034
aS'SQL Server 2008'
p5035
aS'Windows Communication Foundation'
p5036
aS'Windows Server'
p5037
asS'30033861'
p5038
(lp5039
S'Java'
p5040
aS'Struts'
p5041
asS'30027315'
p5042
(lp5043
S'JSON'
p5044
aS'JSP'
p5045
aS'Java'
p5046
aS'Oracle 10g'
p5047
asS'30029583'
p5048
(lp5049
S'JavaScript'
p5050
aS'Other'
p5051
asS'30013584'
p5052
(lp5053
S'J2EE'
p5054
aS'JSP'
p5055
aS'Java'
p5056
aS'JavaScript'
p5057
aS'Struts'
p5058
asS'30026152'
p5059
(lp5060
S'.NET 4.0'
p5061
aS'C#'
p5062
aS'SQL Server 2008'
p5063
aS'Windows Communication Foundation'
p5064
aS'Windows Server'
p5065
asS'30013581'
p5066
(lp5067
S'J2EE'
p5068
aS'Java'
p5069
asS'30013582'
p5070
(lp5071
S'J2EE'
p5072
aS'Java'
p5073
asS'30013583'
p5074
(lp5075
S'J2EE'
p5076
aS'JSP'
p5077
aS'Java'
p5078
aS'JavaScript'
p5079
aS'Struts'
p5080
asS'30017000'
p5081
(lp5082
S'Java'
p5083
asS'30009247'
p5084
(lp5085
S'Java'
p5086
asS'30033269'
p5087
(lp5088
S'JSP'
p5089
aS'Java'
p5090
asS'30032399'
p5091
(lp5092
S'Java'
p5093
asS'30008036'
p5094
(lp5095
S'.NET 3.5'
p5096
asS'30008037'
p5097
(lp5098
S'.NET 3.5'
p5099
aS'C#'
p5100
asS'30006025'
p5101
(lp5102
S'EJB 3'
p5103
aS'Hibernate'
p5104
aS'J2EE'
p5105
aS'Java'
p5106
asS'30006024'
p5107
(lp5108
S'EJB 3'
p5109
aS'Hibernate'
p5110
aS'J2EE'
p5111
aS'Java'
p5112
asS'30006027'
p5113
(lp5114
S'Java'
p5115
aS'SQL Server 2000'
p5116
asS'30006026'
p5117
(lp5118
S'Java'
p5119
aS'SQL Server 2000'
p5120
asS'30006029'
p5121
(lp5122
S'Java'
p5123
aS'SQL Server 2000'
p5124
asS'30006028'
p5125
(lp5126
S'Java'
p5127
aS'SQL Server 2000'
p5128
aS'Spring'
p5129
asS'30027776'
p5130
(lp5131
S'IBM DB2'
p5132
aS'IBM WebSphere Application Server'
p5133
aS'Java'
p5134
aS'Spring'
p5135
asS'30050359'
p5136
(lp5137
S'Angular.js'
p5138
aS'Node.js'
p5139
asS'30032028'
p5140
(lp5141
S'JavaScript'
p5142
aS'Other'
p5143
asS'30032029'
p5144
(lp5145
S'CSS'
p5146
aS'HTML'
p5147
aS'JavaScript'
p5148
aS'Other'
p5149
asS'30035040'
p5150
(lp5151
S'iOS 5.0'
p5152
asS'30032022'
p5153
(lp5154
S'Java'
p5155
asS'30032020'
p5156
(lp5157
S'Java'
p5158
asS'30035048'
p5159
(lp5160
S'Java'
p5161
asS'30032025'
p5162
(lp5163
S'JavaScript'
p5164
aS'Other'
p5165
asS'30007122'
p5166
(lp5167
S'.NET'
p5168
asS'30024972'
p5169
(lp5170
S'Java'
p5171
asS'30024971'
p5172
(lp5173
S'Java'
p5174
asS'30024970'
p5175
(lp5176
S'Java'
p5177
asS'30017751'
p5178
(lp5179
S'J2EE'
p5180
aS'Java'
p5181
aS'Spring'
p5182
asS'30019408'
p5183
(lp5184
S'Java'
p5185
aS'MySQL'
p5186
asS'30019407'
p5187
(lp5188
S'Java'
p5189
aS'MySQL'
p5190
asS'30017758'
p5191
(lp5192
S'Java'
p5193
asS'30019405'
p5194
(lp5195
S'CSS'
p5196
aS'HTML'
p5197
aS'JavaScript'
p5198
asS'30011826'
p5199
(lp5200
S'COBOL'
p5201
aS'IBM Rational Application Developer'
p5202
aS'IBM WebSphere Application Server'
p5203
aS'Java'
p5204
aS'Web Services'
p5205
asS'30041212'
p5206
(lp5207
S'Java'
p5208
asS'30011828'
p5209
(lp5210
S'COBOL'
p5211
aS'EJB'
p5212
aS'IBM Rational Application Developer'
p5213
aS'IBM WebSphere Application Server'
p5214
aS'Java'
p5215
aS'Web Services'
p5216
asS'30006114'
p5217
(lp5218
S'JSP'
p5219
aS'Java'
p5220
aS'Spring'
p5221
asS'30025279'
p5222
(lp5223
S'Hibernate'
p5224
aS'JSON'
p5225
aS'JSP'
p5226
aS'Java'
p5227
aS'Oracle 10g'
p5228
asS'30031128'
p5229
(lp5230
S'Java'
p5231
asS'30031129'
p5232
(lp5233
S'Java'
p5234
asS'30041694'
p5235
(lp5236
S'MySQL'
p5237
aS'Python'
p5238
asS'30041691'
p5239
(lp5240
S'Other'
p5241
asS'30039133'
p5242
(lp5243
S'Android'
p5244
asS'30032314'
p5245
(lp5246
S'Java'
p5247
asS'30026940'
p5248
(lp5249
S'Java'
p5250
asS'30028029'
p5251
(lp5252
S'.NET 4.0'
p5253
asS'30006209'
p5254
(lp5255
S'Java'
p5256
aS'SQL Server 2000'
p5257
aS'Spring'
p5258
asS'30007370'
p5259
(lp5260
S'.NET'
p5261
asS'30007371'
p5262
(lp5263
S'.NET'
p5264
asS'30006751'
p5265
(lp5266
S'Not Specified'
p5267
asS'30006750'
p5268
(lp5269
S'Not Specified'
p5270
asS'30029682'
p5271
(lp5272
S'Java'
p5273
asS'30029681'
p5274
(lp5275
S'Java'
p5276
asS'30031639'
p5277
(lp5278
S'JavaScript'
p5279
aS'Other'
p5280
asS'30011564'
p5281
(lp5282
S'COBOL'
p5283
aS'IBM WebSphere Application Server'
p5284
aS'Java'
p5285
aS'Spring'
p5286
aS'Web Services'
p5287
asS'30010589'
p5288
(lp5289
S'EJB 3'
p5290
aS'J2ME'
p5291
aS'Java'
p5292
asS'30011568'
p5293
(lp5294
S'COBOL'
p5295
aS'IBM WebSphere Application Server'
p5296
aS'Java'
p5297
aS'Spring'
p5298
aS'Web Services'
p5299
asS'30025338'
p5300
(lp5301
S'HTTP'
p5302
aS'J2EE'
p5303
aS'Java'
p5304
asS'30025336'
p5305
(lp5306
S'IBM WebSphere MQ'
p5307
aS'J2EE'
p5308
aS'Java'
p5309
aS'Spring'
p5310
asS'30025337'
p5311
(lp5312
S'HTTP'
p5313
aS'J2EE'
p5314
aS'Java'
p5315
asS'30025335'
p5316
(lp5317
S'IBM WebSphere MQ'
p5318
aS'J2EE'
p5319
aS'Java'
p5320
aS'Spring'
p5321
asS'30031258'
p5322
(lp5323
S'CSS'
p5324
aS'HTML'
p5325
aS'HTML5'
p5326
aS'JavaScript'
p5327
asS'30009813'
p5328
(lp5329
S'.NET 3.5'
p5330
aS'ASP.NET Web Parts'
p5331
aS'Commerce Server 2009'
p5332
aS'SQL Server 2008'
p5333
aS'Sharepoint 3.0'
p5334
aS'Windows Server'
p5335
asS'30011185'
p5336
(lp5337
S'COBOL'
p5338
asS'30031700'
p5339
(lp5340
S'Java'
p5341
asS'30016402'
p5342
(lp5343
S'Blackberry SDK'
p5344
asS'30023840'
p5345
(lp5346
S'.NET 4.0'
p5347
aS'C#'
p5348
aS'SQL Server 2008'
p5349
aS'Windows Communication Foundation'
p5350
asS'30005958'
p5351
(lp5352
S'AJAX'
p5353
aS'HTML'
p5354
aS'Java'
p5355
asS'30007404'
p5356
(lp5357
S'Java'
p5358
asS'30007406'
p5359
(lp5360
S'.NET'
p5361
asS'30007407'
p5362
(lp5363
S'Java'
p5364
asS'30007408'
p5365
(lp5366
S'Java'
p5367
asS'30028361'
p5368
(lp5369
S'ASP.NET'
p5370
aS'C#'
p5371
asS'30025148'
p5372
(lp5373
S'HTML'
p5374
aS'Java'
p5375
aS'JavaScript'
p5376
aS'Oracle 10g'
p5377
aS'Spring'
p5378
asS'30025140'
p5379
(lp5380
S'Java'
p5381
aS'Oracle 10g'
p5382
asS'30008512'
p5383
(lp5384
S'CSS'
p5385
aS'HTML'
p5386
aS'JavaScript'
p5387
asS'30024419'
p5388
(lp5389
S'.NET 4.0'
p5390
aS'C#'
p5391
aS'SQL Server 2008'
p5392
aS'Windows Communication Foundation'
p5393
asS'30026307'
p5394
(lp5395
S'.NET 4.0'
p5396
aS'C#'
p5397
aS'SQL Server 2008'
p5398
aS'Windows Communication Foundation'
p5399
aS'Windows Server'
p5400
asS'30018215'
p5401
(lp5402
S'Not Specified'
p5403
asS'30019344'
p5404
(lp5405
S'Java'
p5406
asS'30005635'
p5407
(lp5408
S'Java'
p5409
asS'30005634'
p5410
(lp5411
S'JSON'
p5412
aS'Java'
p5413
asS'30005637'
p5414
(lp5415
S'JSON'
p5416
aS'Java'
p5417
asS'30005631'
p5418
(lp5419
S'Java'
p5420
asS'30005633'
p5421
(lp5422
S'JPA'
p5423
asS'30020548'
p5424
(lp5425
S'Java'
p5426
asS'30014866'
p5427
(lp5428
S'Blackberry SDK'
p5429
aS'Java'
p5430
asS'30014867'
p5431
(lp5432
S'Blackberry SDK'
p5433
aS'Java'
p5434
asS'30014862'
p5435
(lp5436
S'Blackberry SDK'
p5437
aS'Java'
p5438
asS'30014863'
p5439
(lp5440
S'Blackberry SDK'
p5441
aS'Java'
p5442
asS'30014860'
p5443
(lp5444
S'Blackberry SDK'
p5445
aS'Java'
p5446
asS'30026540'
p5447
(lp5448
S'Java'
p5449
aS'MySQL'
p5450
asS'30014869'
p5451
(lp5452
S'Blackberry SDK'
p5453
aS'Java'
p5454
asS'30018106'
p5455
(lp5456
S'Not Specified'
p5457
asS'30033672'
p5458
(lp5459
S'CSS'
p5460
aS'HTML'
p5461
aS'JavaScript'
p5462
aS'Other'
p5463
asS'30014912'
p5464
(lp5465
S'.NET 3.5'
p5466
aS'C#'
p5467
asS'30014913'
p5468
(lp5469
S'.NET 3.5'
p5470
aS'C#'
p5471
asS'30017951'
p5472
(lp5473
S'Java'
p5474
asS'30027301'
p5475
(lp5476
S'Not Specified'
p5477
asS'30027302'
p5478
(lp5479
S'Java'
p5480
asS'30027305'
p5481
(lp5482
S'Java'
p5483
asS'30027304'
p5484
(lp5485
S'Java'
p5486
aS'Swing'
p5487
asS'30027306'
p5488
(lp5489
S'Java'
p5490
asS'30009251'
p5491
(lp5492
S'CSS'
p5493
aS'HTML'
p5494
aS'JavaScript'
p5495
asS'30032657'
p5496
(lp5497
S'HTML5'
p5498
aS'Java'
p5499
aS'MySQL'
p5500
aS'Spring'
p5501
asS'30009254'
p5502
(lp5503
S'.NET 3.5'
p5504
asS'30017674'
p5505
(lp5506
S'Java'
p5507
aS'Spring'
p5508
asS'30033708'
p5509
(lp5510
S'Java'
p5511
asS'30008021'
p5512
(lp5513
S'.NET 3.5'
p5514
asS'30008020'
p5515
(lp5516
S'.NET 3.5'
p5517
asS'30046430'
p5518
(lp5519
S'AJAX'
p5520
aS'Angular.js'
p5521
aS'HTML'
p5522
aS'JavaScript'
p5523
asS'30041357'
p5524
(lp5525
S'CSS'
p5526
aS'HTML'
p5527
aS'JavaScript'
p5528
aS'Other'
p5529
asS'30027163'
p5530
(lp5531
S'.NET 4.0'
p5532
aS'IIS'
p5533
aS'SQL Server 2008'
p5534
aS'Web Services'
p5535
aS'Windows Communication Foundation'
p5536
asS'30027769'
p5537
(lp5538
S'Java'
p5539
aS'Spring'
p5540
asS'30017675'
p5541
(lp5542
S'CSS'
p5543
aS'HTML'
p5544
aS'JavaScript'
p5545
asS'30025765'
p5546
(lp5547
S'HTML'
p5548
asS'30023203'
p5549
(lp5550
S'HTTP'
p5551
aS'Java'
p5552
aS'Oracle 10g'
p5553
aS'Spring'
p5554
aS'Web Services'
p5555
aS'XML'
p5556
asS'30023208'
p5557
(lp5558
S'Java'
p5559
asS'30023209'
p5560
(lp5561
S'Java'
p5562
asS'30032033'
p5563
(lp5564
S'Java'
p5565
asS'30025766'
p5566
(lp5567
S'CSS'
p5568
aS'HTML'
p5569
aS'JavaScript'
p5570
asS'30017704'
p5571
(lp5572
S'Java'
p5573
asS'30014713'
p5574
(lp5575
S'.NET 3.5'
p5576
aS'C#'
p5577
asS'30014714'
p5578
(lp5579
S'.NET 3.5'
p5580
aS'C#'
p5581
asS'30032811'
p5582
(lp5583
S'IBM DB2'
p5584
aS'JDBC'
p5585
aS'Java'
p5586
asS'30032810'
p5587
(lp5588
S'IBM DB2'
p5589
aS'JDBC'
p5590
aS'Java'
p5591
asS'30041734'
p5592
(lp5593
g1191
asS'30041735'
p5594
(lp5595
g1191
asS'30041736'
p5596
(lp5597
g1191
asS'30041737'
p5598
(lp5599
g1191
asS'30041733'
p5600
(lp5601
g1191
asS'30041739'
p5602
(lp5603
g1191
asS'30006162'
p5604
(lp5605
S'.NET 2.0'
p5606
aS'.NET 3.0'
p5607
aS'ASP.NET'
p5608
aS'SQL Server'
p5609
asS'30031135'
p5610
(lp5611
S'Java'
p5612
asS'30031137'
p5613
(lp5614
S'Java'
p5615
asS'30031136'
p5616
(lp5617
S'Java'
p5618
asS'30034947'
p5619
(lp5620
S'Python'
p5621
asS'30035149'
p5622
(lp5623
S'JMS'
p5624
aS'Java'
p5625
aS'MySQL'
p5626
aS'Spring'
p5627
asS'30049527'
p5628
(lp5629
S'Angular.js'
p5630
aS'HTML5'
p5631
aS'Node.js'
p5632
asS'30034948'
p5633
(lp5634
S'Java'
p5635
asS'30031139'
p5636
(lp5637
S'Java'
p5638
asS'30023517'
p5639
(lp5640
S'Java'
p5641
asS'30013169'
p5642
(lp5643
S'Java'
p5644
aS'Oracle 10g'
p5645
aS'Spring'
p5646
aS'Windows Server 2003'
p5647
asS'30012884'
p5648
(lp5649
S'COBOL'
p5650
aS'IBM Rational Application Developer'
p5651
aS'IBM WebSphere Application Server'
p5652
aS'Java'
p5653
aS'Web Services'
p5654
asS'30012885'
p5655
(lp5656
S'COBOL'
p5657
aS'IBM Rational Application Developer'
p5658
aS'IBM WebSphere Application Server'
p5659
aS'Java'
p5660
aS'Web Services'
p5661
asS'30012151'
p5662
(lp5663
S'COBOL'
p5664
aS'IBM WebSphere Application Server'
p5665
aS'Java Application'
p5666
aS'Web Services'
p5667
asS'30012154'
p5668
(lp5669
S'COBOL'
p5670
aS'IBM Rational Application Developer'
p5671
aS'IBM WebSphere Application Server'
p5672
aS'Java Application'
p5673
aS'Web Services'
p5674
asS'30012157'
p5675
(lp5676
S'COBOL'
p5677
aS'IBM Rational Application Developer'
p5678
aS'IBM WebSphere Application Server'
p5679
aS'Java Application'
p5680
aS'Web Services'
p5681
asS'30031398'
p5682
(lp5683
S'Java'
p5684
asS'30007361'
p5685
(lp5686
S'.NET'
p5687
asS'30007360'
p5688
(lp5689
S'.NET'
p5690
asS'30007363'
p5691
(lp5692
S'Java'
p5693
asS'30007362'
p5694
(lp5695
S'Java'
p5696
asS'30031394'
p5697
(lp5698
S'Java'
p5699
asS'30031624'
p5700
(lp5701
S'JavaScript'
p5702
aS'Other'
p5703
asS'30006563'
p5704
(lp5705
S'Java'
p5706
asS'30006566'
p5707
(lp5708
S'Java'
p5709
asS'30006568'
p5710
(lp5711
S'Java'
p5712
asS'30006569'
p5713
(lp5714
S'Java'
p5715
asS'30010570'
p5716
(lp5717
S'Not Specified'
p5718
asS'30031400'
p5719
(lp5720
S'Not Specified'
p5721
asS'30010576'
p5722
(lp5723
S'J2EE'
p5724
aS'Java'
p5725
aS'MySQL'
p5726
asS'30011579'
p5727
(lp5728
S'COBOL'
p5729
aS'IBM WebSphere Application Server'
p5730
aS'Java'
p5731
aS'Spring'
p5732
aS'Web Services'
p5733
asS'30018742'
p5734
(lp5735
S'Not Specified'
p5736
asS'30027979'
p5737
(lp5738
S'iOS 4.0'
p5739
asS'30025855'
p5740
(lp5741
S'Java'
p5742
asS'30025322'
p5743
(lp5744
S'HTML'
p5745
aS'JavaScript'
p5746
asS'30046767'
p5747
(lp5748
S'CSS'
p5749
aS'HTML'
p5750
aS'JavaScript'
p5751
aS'Node.js'
p5752
asS'30007563'
p5753
(lp5754
S'.NET 3.5'
p5755
aS'C#'
p5756
asS'30007562'
p5757
(lp5758
S'.NET 3.5'
p5759
aS'C#'
p5760
asS'30007561'
p5761
(lp5762
S'.NET 3.5'
p5763
aS'C#'
p5764
asS'30006305'
p5765
(lp5766
S'Not Specified'
p5767
asS'30006306'
p5768
(lp5769
S'.NET 3.5'
p5770
aS'ASP.NET'
p5771
aS'C#'
p5772
asS'30006300'
p5773
(lp5774
S'Java'
p5775
aS'Oracle 10g'
p5776
asS'30034543'
p5777
(lp5778
S'CSS'
p5779
aS'HTML'
p5780
aS'JavaScript'
p5781
asS'30011177'
p5782
(lp5783
S'COBOL'
p5784
aS'IBM WebSphere Application Server'
p5785
aS'Java'
p5786
aS'Spring'
p5787
aS'Web Services'
p5788
asS'30011176'
p5789
(lp5790
S'COBOL'
p5791
aS'IBM WebSphere Application Server'
p5792
aS'Java'
p5793
aS'Spring'
p5794
aS'Web Services'
p5795
asS'30030440'
p5796
(lp5797
S'Java'
p5798
asS'30030162'
p5799
(lp5800
S'Java'
p5801
aS'Spring'
p5802
asS'30006322'
p5803
(lp5804
S'HTML'
p5805
aS'JSP'
p5806
aS'Java'
p5807
aS'JavaScript'
p5808
aS'XML'
p5809
asS'30007143'
p5810
(lp5811
S'Java'
p5812
aS'MySQL'
p5813
asS'30007410'
p5814
(lp5815
S'.NET 3.5'
p5816
aS'C#'
p5817
asS'30007145'
p5818
(lp5819
S'C#'
p5820
asS'30006940'
p5821
(lp5822
S'HTML'
p5823
asS'30023695'
p5824
(lp5825
S'Java'
p5826
asS'30024053'
p5827
(lp5828
S'J2EE'
p5829
aS'Java'
p5830
aS'Spring'
p5831
asS'30015293'
p5832
(lp5833
S'EJB 3'
p5834
aS'IBM WebSphere Application Server'
p5835
aS'JPA'
p5836
aS'Spring'
p5837
asS'30015295'
p5838
(lp5839
S'ActionScript'
p5840
aS'CSS'
p5841
aS'Flash'
p5842
aS'HTML'
p5843
aS'JavaScript'
p5844
asS'30025136'
p5845
(lp5846
S'J2EE'
p5847
aS'JavaScript'
p5848
asS'30025133'
p5849
(lp5850
S'JavaScript'
p5851
asS'30023566'
p5852
(lp5853
S'Java'
p5854
asS'30018567'
p5855
(lp5856
S'Java'
p5857
asS'30018566'
p5858
(lp5859
S'CSS'
p5860
aS'HTML'
p5861
aS'JavaScript'
p5862
asS'30016900'
p5863
(lp5864
S'Not Specified'
p5865
asS'30027992'
p5866
(lp5867
S'PhoneGap'
p5868
asS'30027995'
p5869
(lp5870
S'JavaScript'
p5871
aS'PhoneGap'
p5872
asS'30027997'
p5873
(lp5874
S'Java'
p5875
aS'MySQL'
p5876
asS'30017928'
p5877
(lp5878
S'J2EE'
p5879
aS'Java'
p5880
aS'Spring'
p5881
asS'30017929'
p5882
(lp5883
S'J2EE'
p5884
aS'Java'
p5885
aS'Spring'
p5886
asS'30019359'
p5887
(lp5888
S'Hibernate'
p5889
aS'Java'
p5890
aS'Oracle 10g'
p5891
aS'Spring'
p5892
aS'Web Services'
p5893
asS'30019358'
p5894
(lp5895
S'Not Specified'
p5896
asS'30019357'
p5897
(lp5898
S'CSS'
p5899
aS'HTML'
p5900
aS'JavaScript'
p5901
asS'30017923'
p5902
(lp5903
S'Not Specified'
p5904
asS'30010024'
p5905
(lp5906
S'.NET 3.5'
p5907
aS'Commerce Server 2009'
p5908
asS'30017921'
p5909
(lp5910
S'Java'
p5911
asS'30017926'
p5912
(lp5913
S'J2EE'
p5914
aS'Java'
p5915
aS'Spring'
p5916
asS'30017927'
p5917
(lp5918
S'J2EE'
p5919
aS'Java'
p5920
aS'Spring'
p5921
asS'30017924'
p5922
(lp5923
S'Java'
p5924
asS'30008236'
p5925
(lp5926
S'Java'
p5927
aS'Word/Rich Text'
p5928
asS'30008233'
p5929
(lp5930
S'Not Specified'
p5931
asS'30008238'
p5932
(lp5933
S'Hibernate'
p5934
aS'J2EE'
p5935
aS'JPA'
p5936
aS'Java'
p5937
aS'Spring'
p5938
aS'Struts'
p5939
asS'30015618'
p5940
(lp5941
S'Android 2.1'
p5942
asS'30026554'
p5943
(lp5944
S'Not Specified'
p5945
asS'30033398'
p5946
(lp5947
S'Python'
p5948
asS'30033394'
p5949
(lp5950
S'Python'
p5951
asS'30018171'
p5952
(lp5953
S'J2EE'
p5954
aS'Java'
p5955
asS'30025595'
p5956
(lp5957
S'J2EE'
p5958
aS'JavaScript'
p5959
asS'30005798'
p5960
(lp5961
S'JPA'
p5962
aS'JSON'
p5963
aS'Java'
p5964
aS'MySQL'
p5965
aS'Web Services'
p5966
asS'30019287'
p5967
(lp5968
S'Not Specified'
p5969
asS'30005791'
p5970
(lp5971
S'HTML'
p5972
aS'JSON'
p5973
aS'Java'
p5974
aS'Spring'
p5975
aS'Struts'
p5976
aS'Web Services'
p5977
asS'30005796'
p5978
(lp5979
S'Java'
p5980
asS'30014908'
p5981
(lp5982
S'.NET 3.5'
p5983
aS'C#'
p5984
asS'30014499'
p5985
(lp5986
S'IBM DB2'
p5987
aS'IBM WebSphere Application Server'
p5988
aS'J2EE'
p5989
aS'Struts'
p5990
asS'30014498'
p5991
(lp5992
S'IBM DB2'
p5993
aS'IBM WebSphere Application Server'
p5994
aS'J2EE'
p5995
aS'Struts'
p5996
asS'30030028'
p5997
(lp5998
S'IBM DB2'
p5999
aS'IBM WebSphere Application Server'
p6000
aS'Java'
p6001
asS'30026174'
p6002
(lp6003
S'.NET 4.0'
p6004
aS'C#'
p6005
aS'SQL Server 2008'
p6006
aS'Windows Communication Foundation'
p6007
aS'Windows Server'
p6008
asS'30050972'
p6009
(lp6010
S'Angular.js'
p6011
asS'30018083'
p6012
(lp6013
S'Java'
p6014
asS'30013724'
p6015
(lp6016
S'Java'
p6017
aS'Oracle 10g'
p6018
aS'Spring'
p6019
aS'Windows Server 2003'
p6020
asS'30025463'
p6021
(lp6022
S'CSS'
p6023
aS'HTML'
p6024
aS'Java'
p6025
aS'JavaScript'
p6026
asS'30025464'
p6027
(lp6028
S'JSON'
p6029
aS'JSP'
p6030
aS'JavaScript'
p6031
aS'Oracle 10g'
p6032
aS'SQL'
p6033
aS'Spring'
p6034
asS'30014015'
p6035
(lp6036
S'Java'
p6037
asS'30014014'
p6038
(lp6039
S'IBM WebSphere Application Server'
p6040
aS'Java'
p6041
asS'30014013'
p6042
(lp6043
S'IBM WebSphere Application Server'
p6044
aS'Java'
p6045
asS'30008018'
p6046
(lp6047
S'.NET 3.5'
p6048
asS'30033246'
p6049
(lp6050
S'CSS'
p6051
aS'HTML'
p6052
aS'JavaScript'
p6053
aS'Other'
p6054
asS'30008017'
p6055
(lp6056
S'.NET 3.5'
p6057
asS'30014717'
p6058
(lp6059
S'.NET 3.5'
p6060
aS'C#'
p6061
asS'30008012'
p6062
(lp6063
S'.NET 3.5'
p6064
asS'30008013'
p6065
(lp6066
S'.NET 3.5'
p6067
asS'30027190'
p6068
(lp6069
S'JSON'
p6070
aS'JSP'
p6071
aS'Java'
p6072
aS'JavaScript'
p6073
aS'Oracle 10g'
p6074
asS'30046424'
p6075
(lp6076
S'Not Specified'
p6077
asS'30046429'
p6078
(lp6079
S'JavaScript'
p6080
aS'Node.js'
p6081
asS'30046428'
p6082
(lp6083
S'Angular.js'
p6084
aS'JavaScript'
p6085
aS'Node.js'
p6086
asS'30027201'
p6087
(lp6088
S'Android 2.2'
p6089
aS'CSS'
p6090
aS'HTML'
p6091
aS'JavaScript'
p6092
aS'iOS 5.0'
p6093
asS'30024888'
p6094
(lp6095
S'Not Specified'
p6096
asS'30029016'
p6097
(lp6098
S'Java'
p6099
asS'30048609'
p6100
(lp6101
S'Angular.js'
p6102
asS'30024660'
p6103
(lp6104
S'HTML'
p6105
aS'Java'
p6106
aS'JavaScript'
p6107
asS'30006175'
p6108
(lp6109
S'EJB 3'
p6110
aS'Hibernate'
p6111
aS'J2EE'
p6112
aS'JPA'
p6113
aS'Java'
p6114
aS'MySQL'
p6115
aS'Servlet'
p6116
asS'30041729'
p6117
(lp6118
S'.NET'
p6119
ag1191
asS'30030918'
p6120
(lp6121
S'Java'
p6122
asS'30030919'
p6123
(lp6124
S'Java'
p6125
asS'30009495'
p6126
(lp6127
S'Java Application'
p6128
asS'30030912'
p6129
(lp6130
S'Java'
p6131
asS'30030914'
p6132
(lp6133
S'Java'
p6134
asS'30030915'
p6135
(lp6136
S'Java'
p6137
asS'30030916'
p6138
(lp6139
S'Java'
p6140
asS'30029912'
p6141
(lp6142
S'JavaScript'
p6143
asS'30032751'
p6144
(lp6145
S'Java'
p6146
asS'30029911'
p6147
(lp6148
S'JavaScript'
p6149
asS'30013544'
p6150
(lp6151
S'Java'
p6152
aS'JavaScript'
p6153
aS'Spring'
p6154
aS'Struts'
p6155
asS'30013545'
p6156
(lp6157
S'Java'
p6158
aS'JavaScript'
p6159
aS'Spring'
p6160
aS'Struts'
p6161
asS'30034371'
p6162
(lp6163
S'JavaScript'
p6164
asS'30012149'
p6165
(lp6166
S'COBOL'
p6167
aS'IBM WebSphere Application Server'
p6168
aS'Java'
p6169
aS'Web Services'
p6170
asS'30008640'
p6171
(lp6172
S'Hibernate'
p6173
aS'J2EE'
p6174
aS'JPA'
p6175
aS'Oracle 10g'
p6176
aS'Spring'
p6177
aS'Struts'
p6178
asS'30012419'
p6179
(lp6180
S'Not Specified'
p6181
asS'30017422'
p6182
(lp6183
S'Not Specified'
p6184
asS'30012146'
p6185
(lp6186
S'CSS'
p6187
aS'HTML'
p6188
aS'JavaScript'
p6189
asS'30013947'
p6190
(lp6191
S'Not Specified'
p6192
asS'30013941'
p6193
(lp6194
S'Not Specified'
p6195
asS'30007314'
p6196
(lp6197
S'Java'
p6198
asS'30007310'
p6199
(lp6200
S'Java'
p6201
asS'30007311'
p6202
(lp6203
S'HTML'
p6204
asS'30028359'
p6205
(lp6206
S'CSS'
p6207
aS'HTML5'
p6208
aS'JavaScript'
p6209
asS'30028358'
p6210
(lp6211
S'.NET 3.5'
p6212
aS'.NET 4.0'
p6213
aS'ASP.NET'
p6214
aS'C#'
p6215
aS'Windows Server'
p6216
asS'30007532'
p6217
(lp6218
S'Java'
p6219
asS'30011612'
p6220
(lp6221
S'COBOL'
p6222
aS'IBM WebSphere Application Server'
p6223
aS'Java'
p6224
aS'Spring'
p6225
aS'Web Services'
p6226
asS'30049390'
p6227
(lp6228
S'Google API'
p6229
aS'HTML5'
p6230
aS'Java'
p6231
aS'REST'
p6232
aS'SQL Server'
p6233
aS'jQuery'
p6234
asS'30011615'
p6235
(lp6236
S'COBOL'
p6237
aS'IBM WebSphere Application Server'
p6238
aS'Java'
p6239
aS'Spring'
p6240
aS'Web Services'
p6241
asS'30029356'
p6242
(lp6243
S'CSS'
p6244
aS'HTML'
p6245
aS'JavaScript'
p6246
aS'PHP'
p6247
asS'30029353'
p6248
(lp6249
S'CSS'
p6250
aS'HTML'
p6251
aS'JavaScript'
p6252
asS'30010567'
p6253
(lp6254
S'Not Specified'
p6255
asS'30006792'
p6256
(lp6257
S'Java'
p6258
asS'30010569'
p6259
(lp6260
S'Not Specified'
p6261
asS'30010568'
p6262
(lp6263
S'Not Specified'
p6264
asS'30016064'
p6265
(lp6266
S'Blackberry SDK'
p6267
aS'Java'
p6268
asS'30016066'
p6269
(lp6270
S'.NET 3.5'
p6271
aS'ASP.NET'
p6272
aS'C#'
p6273
aS'SQL Server 2008'
p6274
aS'Windows Server'
p6275
asS'30006794'
p6276
(lp6277
S'ASP.NET'
p6278
asS'30029171'
p6279
(lp6280
S'IBM DB2'
p6281
aS'Java'
p6282
asS'30025868'
p6283
(lp6284
S'Java'
p6285
aS'MySQL'
p6286
asS'30031131'
p6287
(lp6288
S'PhoneGap'
p6289
aS'Sencha Touch 2'
p6290
asS'30025862'
p6291
(lp6292
S'Java'
p6293
asS'30031130'
p6294
(lp6295
S'Java'
p6296
asS'30010969'
p6297
(lp6298
S'Java'
p6299
asS'30009876'
p6300
(lp6301
S'EJB 3'
p6302
aS'J2EE'
p6303
aS'Java'
p6304
asS'30009875'
p6305
(lp6306
S'EJB 3'
p6307
aS'J2EE'
p6308
aS'Java'
p6309
asS'30009874'
p6310
(lp6311
S'EJB 3'
p6312
aS'J2EE'
p6313
aS'Java'
p6314
asS'30016392'
p6315
(lp6316
S'HTML'
p6317
aS'IBM AIX'
p6318
aS'IBM COGNOS'
p6319
aS'IBM DB2'
p6320
aS'IBM WebSphere Application Server'
p6321
aS'J2EE'
p6322
aS'Perl'
p6323
asS'30006312'
p6324
(lp6325
S'.NET 3.0'
p6326
aS'.NET 3.5'
p6327
aS'C#'
p6328
asS'30031274'
p6329
(lp6330
S'Java'
p6331
asS'30049261'
p6332
(lp6333
S'CSS'
p6334
aS'HTML'
p6335
aS'JavaScript'
p6336
asS'30031273'
p6337
(lp6338
S'Java'
p6339
asS'30009879'
p6340
(lp6341
S'EJB 3'
p6342
aS'J2EE'
p6343
aS'Java'
p6344
asS'30009878'
p6345
(lp6346
S'EJB 3'
p6347
aS'J2EE'
p6348
aS'Java'
p6349
asS'30030050'
p6350
(lp6351
S'Java'
p6352
asS'30027298'
p6353
(lp6354
S'Java'
p6355
asS'30027285'
p6356
(lp6357
S'JSP'
p6358
aS'Java'
p6359
asS'30024322'
p6360
(lp6361
S'Java'
p6362
aS'JavaScript'
p6363
asS'30029009'
p6364
(lp6365
S'JavaScript'
p6366
aS'Sencha Touch 2'
p6367
aS'Xcode'
p6368
asS'30025260'
p6369
(lp6370
S'Java'
p6371
asS'30007134'
p6372
(lp6373
S'J2EE'
p6374
aS'SQL Server'
p6375
aS'Struts'
p6376
asS'30007427'
p6377
(lp6378
S'Not Specified'
p6379
asS'30007424'
p6380
(lp6381
S'.NET 3.5'
p6382
aS'ASP.NET'
p6383
aS'C#'
p6384
asS'30007425'
p6385
(lp6386
S'.NET 3.5'
p6387
aS'ASP.NET'
p6388
aS'C#'
p6389
asS'30007422'
p6390
(lp6391
S'.NET'
p6392
asS'30007423'
p6393
(lp6394
S'.NET'
p6395
asS'30007420'
p6396
(lp6397
S'J2EE'
p6398
aS'Java'
p6399
asS'30007421'
p6400
(lp6401
S'.NET'
p6402
asS'30009124'
p6403
(lp6404
S'.NET 3.5'
p6405
aS'ASP.NET'
p6406
aS'Commerce Server 2009'
p6407
aS'IIS'
p6408
aS'SQL Server 2008'
p6409
aS'Sharepoint 3.0'
p6410
aS'Windows Server'
p6411
asS'30005814'
p6412
(lp6413
S'JUnit'
p6414
aS'Java'
p6415
aS'MySQL'
p6416
asS'30006995'
p6417
(lp6418
S'Java'
p6419
aS'Struts'
p6420
asS'30032370'
p6421
(lp6422
S'Java'
p6423
asS'30025113'
p6424
(lp6425
S'Java'
p6426
asS'30024438'
p6427
(lp6428
S'Java'
p6429
asS'30027988'
p6430
(lp6431
S'JavaScript'
p6432
asS'30027982'
p6433
(lp6434
S'Xcode'
p6435
asS'30027981'
p6436
(lp6437
S'Not Specified'
p6438
asS'30027987'
p6439
(lp6440
S'JavaScript'
p6441
aS'iOS 4.0'
p6442
asS'30027986'
p6443
(lp6444
S'iOS 4.0'
p6445
asS'30027985'
p6446
(lp6447
S'iOS 4.0'
p6448
asS'30031892'
p6449
(lp6450
S'CSS'
p6451
aS'HTML5'
p6452
aS'JavaScript'
p6453
asS'30031890'
p6454
(lp6455
S'Not Specified'
p6456
asS'30031891'
p6457
(lp6458
S'Not Specified'
p6459
asS'30019363'
p6460
(lp6461
S'HTML'
p6462
aS'Java'
p6463
aS'JavaScript'
p6464
asS'30025697'
p6465
(lp6466
S'Java'
p6467
aS'MySQL'
p6468
asS'30017939'
p6469
(lp6470
S'Not Specified'
p6471
asS'30019367'
p6472
(lp6473
S'Hibernate'
p6474
aS'Java'
p6475
aS'Oracle 10g'
p6476
asS'30019365'
p6477
(lp6478
S'Hibernate'
p6479
aS'Java'
p6480
aS'Oracle 10g'
p6481
asS'30019368'
p6482
(lp6483
S'Hibernate'
p6484
aS'Java'
p6485
aS'Oracle 10g'
p6486
asS'30019369'
p6487
(lp6488
S'Hibernate'
p6489
aS'Java'
p6490
aS'Oracle 10g'
p6491
asS'30033010'
p6492
(lp6493
S'Java'
p6494
asS'30015609'
p6495
(lp6496
S'Android 2.1'
p6497
asS'30025050'
p6498
(lp6499
S'CSS'
p6500
aS'HTML'
p6501
aS'JavaScript'
p6502
asS'30015170'
p6503
(lp6504
S'Not Specified'
p6505
asS'30015862'
p6506
(lp6507
S'.NET 3.5'
p6508
aS'C#'
p6509
aS'SQL Server 2008'
p6510
aS'Windows Communication Foundation'
p6511
aS'Windows Server'
p6512
asS'30015865'
p6513
(lp6514
S'.NET 3.5'
p6515
aS'C#'
p6516
aS'SQL Server 2008'
p6517
aS'Windows Communication Foundation'
p6518
aS'Windows Server'
p6519
asS'30015864'
p6520
(lp6521
S'.NET 3.5'
p6522
aS'C#'
p6523
aS'SQL Server 2008'
p6524
aS'Windows Communication Foundation'
p6525
aS'Windows Server'
p6526
asS'30008683'
p6527
(lp6528
S'Not Specified'
p6529
asS'30018167'
p6530
(lp6531
S'Java'
p6532
asS'30018166'
p6533
(lp6534
S'Java'
p6535
asS'30018165'
p6536
(lp6537
S'Java'
p6538
asS'30008680'
p6539
(lp6540
S'Not Specified'
p6541
asS'30009301'
p6542
(lp6543
S'Not Specified'
p6544
asS'30009300'
p6545
(lp6546
S'JDBC'
p6547
aS'Java'
p6548
asS'30018161'
p6549
(lp6550
S'Java'
p6551
asS'30018160'
p6552
(lp6553
S'Java'
p6554
asS'30008319'
p6555
(lp6556
S'Not Specified'
p6557
asS'30015468'
p6558
(lp6559
S'IBM DB2'
p6560
aS'IBM WebSphere Application Server'
p6561
aS'J2EE'
p6562
aS'Spring'
p6563
aS'Struts'
p6564
asS'30014390'
p6565
(lp6566
g1191
aS'Java'
p6567
asS'30005787'
p6568
(lp6569
S'HTML'
p6570
aS'Java'
p6571
aS'Spring'
p6572
aS'Struts'
p6573
aS'Web Services'
p6574
asS'30005783'
p6575
(lp6576
S'J2EE'
p6577
aS'JSP'
p6578
aS'Java'
p6579
asS'30027367'
p6580
(lp6581
S'Not Specified'
p6582
asS'30027366'
p6583
(lp6584
S'Not Specified'
p6585
asS'30027362'
p6586
(lp6587
S'Java'
p6588
aS'MySQL'
p6589
asS'30027360'
p6590
(lp6591
S'Java'
p6592
aS'MySQL'
p6593
asS'30031393'
p6594
(lp6595
S'Java'
p6596
asS'30025479'
p6597
(lp6598
S'Java'
p6599
asS'30025478'
p6600
(lp6601
S'Java'
p6602
asS'30025475'
p6603
(lp6604
S'Java'
p6605
asS'30014023'
p6606
(lp6607
S'IBM WebSphere Application Server'
p6608
aS'Java'
p6609
aS'Struts'
p6610
asS'30025477'
p6611
(lp6612
S'Java'
p6613
asS'30025476'
p6614
(lp6615
S'Java'
p6616
asS'30019380'
p6617
(lp6618
S'JSP'
p6619
aS'Java'
p6620
aS'Oracle 10g'
p6621
aS'Spring'
p6622
asS'30019381'
p6623
(lp6624
S'J2EE'
p6625
aS'JSP'
p6626
aS'Java'
p6627
aS'Oracle 10g'
p6628
aS'Spring'
p6629
asS'30019382'
p6630
(lp6631
S'J2EE'
p6632
aS'JSP'
p6633
aS'Java'
p6634
aS'Oracle 10g'
p6635
aS'Spring'
p6636
asS'30019386'
p6637
(lp6638
S'Java'
p6639
asS'30023220'
p6640
(lp6641
S'Java'
p6642
asS'30023221'
p6643
(lp6644
S'Java'
p6645
asS'30012954'
p6646
(lp6647
S'IBM DB2'
p6648
aS'IBM WebSphere Application Server'
p6649
aS'J2EE'
p6650
aS'Java'
p6651
aS'Spring'
p6652
aS'Struts'
p6653
asS'30012955'
p6654
(lp6655
S'IBM DB2'
p6656
aS'IBM WebSphere Application Server'
p6657
aS'J2EE'
p6658
aS'Java'
p6659
aS'Spring'
p6660
aS'Struts'
p6661
asS'30012957'
p6662
(lp6663
S'IBM DB2'
p6664
aS'IBM WebSphere Application Server'
p6665
aS'J2EE'
p6666
aS'Java'
p6667
aS'Spring'
p6668
asS'30049724'
p6669
(lp6670
S'Angular.js'
p6671
aS'MongoDB'
p6672
aS'Node.js'
p6673
asS'30028988'
p6674
(lp6675
S'.NET 4.0'
p6676
aS'C#'
p6677
asS'30027699'
p6678
(lp6679
S'CSS'
p6680
aS'HTML'
p6681
aS'JavaScript'
p6682
asS'30026893'
p6683
(lp6684
S'Java'
p6685
asS'30027697'
p6686
(lp6687
S'HTML'
p6688
asS'30028983'
p6689
(lp6690
S'Java'
p6691
aS'JavaScript'
p6692
asS'30028980'
p6693
(lp6694
S'Java'
p6695
aS'Spring'
p6696
asS'30028981'
p6697
(lp6698
S'Hibernate'
p6699
aS'Java'
p6700
aS'Spring'
p6701
asS'30028984'
p6702
(lp6703
S'Java'
p6704
asS'30028566'
p6705
(lp6706
S'Perl'
p6707
asS'30028567'
p6708
(lp6709
S'Perl'
p6710
asS'30028568'
p6711
(lp6712
S'Perl'
p6713
asS'30028569'
p6714
(lp6715
S'Perl'
p6716
asS'30028298'
p6717
(lp6718
S'Java'
p6719
aS'MySQL'
p6720
asS'30028299'
p6721
(lp6722
S'CSS'
p6723
aS'HTML'
p6724
aS'JSON'
p6725
aS'JavaScript'
p6726
aS'XML'
p6727
asS'30024987'
p6728
(lp6729
S'CSS'
p6730
aS'HTML'
p6731
aS'JavaScript'
p6732
asS'30030909'
p6733
(lp6734
S'.NET 3.5'
p6735
aS'.NET 4.0'
p6736
aS'ASP.NET'
p6737
aS'C#'
p6738
asS'30050331'
p6739
(lp6740
S'Google API'
p6741
aS'JDBC'
p6742
aS'Java'
p6743
aS'REST'
p6744
aS'SQL Server'
p6745
asS'30017380'
p6746
(lp6747
S'J2EE'
p6748
aS'Java'
p6749
aS'JavaScript'
p6750
asS'30030905'
p6751
(lp6752
S'Java'
p6753
aS'Spring'
p6754
asS'30032081'
p6755
(lp6756
S'JSP'
p6757
aS'Java'
p6758
asS'30028182'
p6759
(lp6760
S'CSS'
p6761
aS'HTML'
p6762
aS'JavaScript'
p6763
asS'30028369'
p6764
(lp6765
S'.NET 4.0'
p6766
aS'ASP.NET'
p6767
aS'C#'
p6768
aS'Windows Communication Foundation'
p6769
asS'30024600'
p6770
(lp6771
S'JavaScript'
p6772
asS'30028362'
p6773
(lp6774
S'.NET 4.0'
p6775
aS'ASP.NET'
p6776
aS'C#'
p6777
asS'30035183'
p6778
(lp6779
S'.NET'
p6780
aS'HTML5'
p6781
aS'SQL Server 2008'
p6782
asS'30035184'
p6783
(lp6784
S'CSS'
p6785
aS'HTML'
p6786
aS'JavaScript'
p6787
asS'30035185'
p6788
(lp6789
S'CSS'
p6790
aS'HTML5'
p6791
aS'JavaScript'
p6792
asS'30035187'
p6793
(lp6794
S'Python'
p6795
aS'SQL'
p6796
asS'30026925'
p6797
(lp6798
S'Java'
p6799
asS'30013164'
p6800
(lp6801
S'Java'
p6802
aS'Oracle 10g'
p6803
aS'Spring'
p6804
aS'Windows Server 2003'
p6805
asS'30006094'
p6806
(lp6807
S'Java'
p6808
asS'30006095'
p6809
(lp6810
S'Java'
p6811
asS'30035500'
p6812
(lp6813
S'Java'
p6814
asS'30006543'
p6815
(lp6816
S'.NET'
p6817
aS'.NET 3.5'
p6818
aS'ASP.NET'
p6819
aS'C#'
p6820
aS'SQL Server'
p6821
asS'30017702'
p6822
(lp6823
S'Java'
p6824
asS'30017703'
p6825
(lp6826
S'Java'
p6827
asS'30017700'
p6828
(lp6829
S'Java'
p6830
asS'30017701'
p6831
(lp6832
S'Java'
p6833
asS'30031083'
p6834
(lp6835
S'IBM DB2'
p6836
aS'J2EE'
p6837
aS'Java'
p6838
asS'30031082'
p6839
(lp6840
S'Not Specified'
p6841
asS'30031465'
p6842
(lp6843
S'.NET 4.0'
p6844
aS'C#'
p6845
aS'Windows Communication Foundation'
p6846
aS'Windows Server'
p6847
asS'30031464'
p6848
(lp6849
S'.NET 4.0'
p6850
aS'C#'
p6851
aS'Windows Communication Foundation'
p6852
asS'30031463'
p6853
(lp6854
S'.NET 4.0'
p6855
aS'C#'
p6856
aS'Windows Communication Foundation'
p6857
asS'30031462'
p6858
(lp6859
S'.NET 4.0'
p6860
aS'C#'
p6861
aS'Windows Communication Foundation'
p6862
asS'30031461'
p6863
(lp6864
S'.NET 4.0'
p6865
aS'C#'
p6866
aS'Windows Communication Foundation'
p6867
asS'30035987'
p6868
(lp6869
S'Python'
p6870
asS'30006898'
p6871
(lp6872
S'.NET'
p6873
asS'30006899'
p6874
(lp6875
S'C#'
p6876
asS'30024050'
p6877
(lp6878
S'J2EE'
p6879
aS'Java'
p6880
asS'30024051'
p6881
(lp6882
S'J2EE'
p6883
aS'Java'
p6884
asS'30024052'
p6885
(lp6886
S'J2EE'
p6887
aS'Java'
p6888
asS'30006897'
p6889
(lp6890
S'.NET'
p6891
asS'30024054'
p6892
(lp6893
S'J2EE'
p6894
aS'Java'
p6895
asS'30024056'
p6896
(lp6897
S'J2EE'
p6898
aS'Java'
p6899
asS'30009688'
p6900
(lp6901
S'Hibernate'
p6902
aS'J2EE'
p6903
aS'JSP'
p6904
aS'Java'
p6905
aS'MySQL'
p6906
aS'SQL'
p6907
aS'Struts'
p6908
asS'30018664'
p6909
(lp6910
S'Java'
p6911
asS'30028977'
p6912
(lp6913
S'Not Specified'
p6914
asS'30009684'
p6915
(lp6916
S'.NET 3.5'
p6917
aS'ASP.NET'
p6918
aS'Commerce Server 2009'
p6919
aS'IIS'
p6920
aS'SQL Server 2008'
p6921
aS'Sharepoint 3.0'
p6922
aS'Windows Server'
p6923
asS'30018499'
p6924
(lp6925
S'CSS'
p6926
aS'HTML'
p6927
aS'JavaScript'
p6928
asS'30043390'
p6929
(lp6930
S'CSS'
p6931
aS'HTML'
p6932
aS'JavaScript'
p6933
aS'Node.js'
p6934
asS'30030029'
p6935
(lp6936
S'IBM DB2'
p6937
aS'IBM WebSphere Application Server'
p6938
aS'Java'
p6939
asS'30018661'
p6940
(lp6941
S'Java'
p6942
asS'30008550'
p6943
(lp6944
S'.NET 3.5'
p6945
asS'30031766'
p6946
(lp6947
S'Java'
p6948
asS'30025531'
p6949
(lp6950
S'Java'
p6951
asS'30012600'
p6952
(lp6953
S'Not Specified'
p6954
asS'30031767'
p6955
(lp6956
S'Java'
p6957
asS'30025532'
p6958
(lp6959
S'Java'
p6960
asS'30005963'
p6961
(lp6962
S'EJB 3'
p6963
aS'Hibernate'
p6964
aS'Java'
p6965
asS'30007439'
p6966
(lp6967
S'.NET 3.5'
p6968
aS'C#'
p6969
asS'30007438'
p6970
(lp6971
S'.NET 3.5'
p6972
aS'C#'
p6973
asS'30025533'
p6974
(lp6975
S'Perl'
p6976
asS'30025270'
p6977
(lp6978
S'Java'
p6979
asS'30007430'
p6980
(lp6981
S'.NET 3.5'
p6982
aS'C#'
p6983
asS'30007432'
p6984
(lp6985
S'Java'
p6986
aS'Struts'
p6987
asS'30007437'
p6988
(lp6989
S'Java'
p6990
aS'Struts'
p6991
asS'30007127'
p6992
(lp6993
S'.NET'
p6994
asS'30007126'
p6995
(lp6996
S'.NET'
p6997
asS'30007125'
p6998
(lp6999
S'Java'
p7000
asS'30007124'
p7001
(lp7002
S'Java'
p7003
asS'30007123'
p7004
(lp7005
S'.NET'
p7006
asS'30030115'
p7007
(lp7008
S'.NET 4.0'
p7009
asS'30007121'
p7010
(lp7011
S'.NET'
p7012
asS'30007128'
p7013
(lp7014
S'.NET'
p7015
asS'30030334'
p7016
(lp7017
S'CSS'
p7018
aS'HTML'
p7019
aS'JavaScript'
p7020
asS'30035809'
p7021
(lp7022
S'JPA'
p7023
aS'Java'
p7024
aS'MySQL'
p7025
aS'Spring'
p7026
asS'30025110'
p7027
(lp7028
S'JSON'
p7029
aS'Java'
p7030
asS'30025111'
p7031
(lp7032
S'JSON'
p7033
aS'Java'
p7034
asS'30018548'
p7035
(lp7036
S'Java'
p7037
asS'30008635'
p7038
(lp7039
S'Java'
p7040
aS'Struts'
p7041
asS'30031887'
p7042
(lp7043
S'J2EE'
p7044
aS'JSON'
p7045
aS'Java'
p7046
aS'Spring'
p7047
asS'30031889'
p7048
(lp7049
S'Not Specified'
p7050
asS'30019375'
p7051
(lp7052
S'JSON'
p7053
aS'Java'
p7054
aS'Oracle 10g'
p7055
aS'Spring'
p7056
asS'30019374'
p7057
(lp7058
S'Hibernate'
p7059
aS'Java'
p7060
aS'Oracle 10g'
p7061
aS'Spring'
p7062
asS'30019377'
p7063
(lp7064
S'AJAX'
p7065
aS'J2EE'
p7066
aS'JSP'
p7067
aS'Java'
p7068
aS'JavaScript'
p7069
asS'30019376'
p7070
(lp7071
S'JSON'
p7072
aS'Java'
p7073
aS'Oracle 10g'
p7074
aS'Spring'
p7075
asS'30019371'
p7076
(lp7077
S'Hibernate'
p7078
aS'Java'
p7079
aS'Oracle 10g'
p7080
aS'Spring'
p7081
asS'30019370'
p7082
(lp7083
S'Hibernate'
p7084
aS'Java'
p7085
aS'Oracle 10g'
p7086
asS'30019373'
p7087
(lp7088
S'Hibernate'
p7089
aS'Java'
p7090
aS'Oracle 10g'
p7091
aS'Spring'
p7092
asS'30019379'
p7093
(lp7094
S'JSP'
p7095
aS'Java'
p7096
aS'Oracle 10g'
p7097
aS'Spring'
p7098
asS'30024515'
p7099
(lp7100
S'JSON'
p7101
aS'Java'
p7102
aS'Spring'
p7103
aS'Web Services'
p7104
asS'30024514'
p7105
(lp7106
S'Java'
p7107
aS'JavaScript'
p7108
asS'30024517'
p7109
(lp7110
S'Java'
p7111
aS'Spring'
p7112
aS'Web Services'
p7113
asS'30024512'
p7114
(lp7115
S'Java'
p7116
aS'JavaScript'
p7117
asS'30036296'
p7118
(lp7119
S'HTML5'
p7120
aS'JavaScript'
p7121
aS'Web Services'
p7122
as.