(dp0
(S'maymay'
p1
S'30029512'
p2
tp3
(lp4
S'30025948'
p5
aS'30027081'
p6
aS'30049821'
p7
aS'30050327'
p8
aS'30030922'
p9
aS'30033195'
p10
aS'30033197'
p11
aS'30036564'
p12
aS'30029942'
p13
aS'30029943'
p14
aS'30027697'
p15
aS'30027273'
p16
aS'30027274'
p17
aS'30019363'
p18
aS'30023802'
p19
aS'30019478'
p20
aS'30023517'
p21
aS'30032894'
p22
aS'30024197'
p23
aS'30019042'
p24
aS'30030334'
p25
aS'30026382'
p26
aS'30026383'
p27
aS'30030512'
p28
aS'30030513'
p29
as(S'billthu'
p30
S'30028842'
p31
tp32
(lp33
S'30031945'
p34
aS'30032015'
p35
aS'30032025'
p36
aS'30018566'
p37
aS'30027699'
p38
aS'30035695'
p39
aS'30048609'
p40
aS'30028299'
p41
aS'30032408'
p42
aS'30018620'
p43
aS'30024600'
p44
aS'30024661'
p45
as(S'dileepa'
p46
S'30028182'
p47
tp48
(lp49
S'30033561'
p50
aS'30035619'
p51
aS'30022835'
p52
aS'30025289'
p53
aS'30019357'
p54
aS'30031920'
p55
aS'30029880'
p56
aS'30031892'
p57
as(S'YeGGo'
p58
S'30029244'
p59
tp60
(lp61
S'30007561'
p62
aS'30007694'
p63
aS'30007861'
p64
aS'30006794'
p65
aS'30029868'
p66
aS'30007197'
p67
aS'30007217'
p68
aS'30007218'
p69
aS'30007406'
p70
aS'30008351'
p71
aS'30008683'
p72
as(S'subchap'
p73
S'30027982'
p74
tp75
(lp76
S'30032408'
p77
aS'30027201'
p78
as(S'duxiaoyang'
p79
S'30027992'
p80
tp81
(lp82
S'30030920'
p83
aS'30032583'
p84
aS'30032417'
p85
aS'30024934'
p86
aS'30019041'
p87
aS'30024275'
p88
aS'30024322'
p89
aS'30023495'
p90
aS'30024011'
p91
aS'30024038'
p92
aS'30025248'
p93
aS'30025855'
p94
aS'30026056'
p95
aS'30026347'
p96
aS'30032314'
p97
aS'30032865'
p98
aS'30017751'
p99
aS'30018159'
p100
as(S'babyface168'
p101
S'30029513'
p102
tp103
(lp104
S'30025948'
p105
aS'30031889'
p106
aS'30031890'
p107
aS'30029408'
p108
aS'30027273'
p109
aS'30027274'
p110
aS'30026381'
p111
aS'30026382'
p112
as(S'kurtrips'
p113
S'30027986'
p114
tp115
(lp116
S'30028019'
p117
aS'30028020'
p118
aS'30028021'
p119
aS'30007074'
p120
aS'30031083'
p121
aS'30006811'
p122
aS'30024359'
p123
aS'30005913'
p124
aS'30015701'
p125
aS'30015812'
p126
aS'30030344'
p127
aS'30030346'
p128
aS'30030905'
p129
aS'30025318'
p130
aS'30025319'
p131
aS'30019816'
p132
aS'30019817'
p133
aS'30007119'
p134
aS'30007122'
p135
aS'30017921'
p136
aS'30019152'
p137
aS'30017929'
p138
aS'30031028'
p139
aS'30012568'
p140
as(S'qiucx0161'
p141
S'30029472'
p142
tp143
(lp144
S'30031136'
p145
as(S'argolite'
p146
S'30029618'
p147
tp148
(lp149
S'30006792'
p150
aS'30005518'
p151
aS'30007354'
p152
aS'30007438'
p153
aS'30008127'
p154
aS'30027518'
p155
aS'30031528'
p156
aS'30031534'
p157
aS'30031536'
p158
aS'30031600'
p159
aS'30032020'
p160
aS'30032022'
p161
aS'30032180'
p162
aS'30032184'
p163
aS'30032243'
p164
aS'30006496'
p165
aS'30006851'
p166
aS'30006810'
p167
aS'30006811'
p168
aS'30049390'
p169
aS'30049815'
p170
aS'30005644'
p171
aS'30005929'
p172
aS'30011185'
p173
aS'30011564'
p174
aS'30011568'
p175
aS'30011579'
p176
aS'30011592'
p177
aS'30011612'
p178
aS'30011615'
p179
aS'30011714'
p180
aS'30011720'
p181
aS'30011726'
p182
aS'30011729'
p183
aS'30011826'
p184
aS'30011828'
p185
aS'30011830'
p186
aS'30012149'
p187
aS'30012151'
p188
aS'30012154'
p189
aS'30012157'
p190
aS'30012160'
p191
aS'30033428'
p192
aS'30034496'
p193
aS'30018462'
p194
aS'30018463'
p195
aS'30025476'
p196
aS'30025478'
p197
aS'30026925'
p198
aS'30026927'
p199
aS'30026940'
p200
aS'30027297'
p201
aS'30035183'
p202
aS'30036225'
p203
aS'30025257'
p204
aS'30025259'
p205
aS'30025509'
p206
aS'30025531'
p207
aS'30026505'
p208
aS'30026507'
p209
aS'30034439'
p210
aS'30042811'
p211
aS'30043014'
p212
aS'30012954'
p213
aS'30014031'
p214
aS'30014331'
p215
aS'30014498'
p216
aS'30014504'
p217
aS'30014535'
p218
aS'30014596'
p219
aS'30014599'
p220
aS'30012957'
p221
aS'30014013'
p222
aS'30014576'
p223
aS'30005823'
p224
aS'30006028'
p225
aS'30008660'
p226
aS'30026290'
p227
aS'30027696'
p228
aS'30013964'
p229
aS'30031767'
p230
aS'30008629'
p231
aS'30009874'
p232
aS'30033371'
p233
aS'30035695'
p234
aS'30015830'
p235
aS'30016446'
p236
aS'30016545'
p237
aS'30030344'
p238
aS'30030348'
p239
aS'30030905'
p240
aS'30031056'
p241
aS'30031303'
p242
aS'30026405'
p243
aS'30027261'
p244
aS'30027265'
p245
aS'30027269'
p246
aS'30027271'
p247
aS'30031139'
p248
aS'30031141'
p249
aS'30009280'
p250
aS'30009533'
p251
aS'30009538'
p252
aS'30009813'
p253
aS'30007250'
p254
aS'30007310'
p255
aS'30007314'
p256
aS'30007330'
p257
aS'30007408'
p258
aS'30007419'
p259
aS'30028980'
p260
aS'30028981'
p261
aS'30025002'
p262
aS'30019359'
p263
aS'30023203'
p264
aS'30025337'
p265
aS'30021882'
p266
aS'30019816'
p267
aS'30019817'
p268
aS'30014859'
p269
aS'30014119'
p270
aS'30006333'
p271
aS'30006264'
p272
aS'30006220'
p273
aS'30006363'
p274
aS'30006508'
p275
aS'30028361'
p276
aS'30031461'
p277
aS'30017081'
p278
aS'30017573'
p279
aS'30017575'
p280
aS'30017678'
p281
aS'30017702'
p282
aS'30017000'
p283
aS'30023773'
p284
aS'30023833'
p285
aS'30024419'
p286
aS'30025243'
p287
aS'30025636'
p288
aS'30027163'
p289
aS'30027305'
p290
aS'30027306'
p291
aS'30029974'
p292
aS'30029884'
p293
aS'30012062'
p294
as(S'111222'
p295
S'30028835'
p296
tp297
(lp298
s(S'sampath01'
p299
S'30027986'
p300
tp301
(lp302
S'30028019'
p303
aS'30012419'
p304
aS'30018051'
p305
aS'30016446'
p306
aS'30011228'
p307
aS'30012600'
p308
aS'30028975'
p309
aS'30028981'
p310
aS'30018742'
p311
aS'30019004'
p312
aS'30018622'
p313
aS'30017571'
p314
aS'30017575'
p315
aS'30017926'
p316
aS'30017927'
p317
aS'30018158'
p318
aS'30018160'
p319
aS'30018162'
p320
aS'30018166'
p321
as(S'subchap'
p322
S'30030236'
p323
tp324
(lp325
S'30032408'
p326
aS'30027201'
p327
as(S'babyfox'
p328
S'30028835'
p329
tp330
(lp331
S'30033591'
p332
aS'30033610'
p333
aS'30018566'
p334
aS'30022361'
p335
aS'30036124'
p336
aS'30019357'
p337
aS'30023776'
p338
aS'30029353'
p339
aS'30015729'
p340
aS'30017675'
p341
aS'30024650'
p342
aS'30023832'
p343
aS'30026424'
p344
aS'30031892'
p345
aS'30032490'
p346
aS'30013545'
p347
as(S'muzehyun'
p348
S'30027979'
p349
tp350
(lp351
S'30027264'
p352
aS'30026862'
p353
aS'30027201'
p354
as(S'billthu'
p355
S'30028835'
p356
tp357
(lp358
S'30031945'
p359
aS'30032015'
p360
aS'30032025'
p361
aS'30018566'
p362
aS'30027699'
p363
aS'30035695'
p364
aS'30048609'
p365
aS'30028299'
p366
aS'30032408'
p367
aS'30018620'
p368
aS'30024600'
p369
aS'30024661'
p370
as(S'subchap'
p371
S'30027992'
p372
tp373
(lp374
S'30032408'
p375
aS'30027201'
p376
as(S'gabyja'
p377
S'30029280'
p378
tp379
(lp380
S'30027447'
p381
aS'30027449'
p382
aS'30029942'
p383
aS'30024739'
p384
aS'30028078'
p385
aS'30019363'
p386
aS'30025806'
p387
aS'30025732'
p388
aS'30025995'
p389
aS'30025766'
p390
as(S'sdgun'
p391
S'30029513'
p392
tp393
(lp394
S'30030334'
p395
as(S'rainforest'
p396
S'30026352'
p397
tp398
(lp399
s(S'hamdanil'
p400
S'30026352'
p401
tp402
(lp403
S'30034432'
p404
aS'30025723'
p405
aS'30018215'
p406
as(S'subchap'
p407
S'30031131'
p408
tp409
(lp410
S'30032408'
p411
aS'30027201'
p412
as(S'subchap'
p413
S'30029245'
p414
tp415
(lp416
S'30032408'
p417
aS'30027201'
p418
as(S'subchap'
p419
S'30027987'
p420
tp421
(lp422
S'30032408'
p423
aS'30027201'
p424
as(S'sampath01'
p425
S'30027985'
p426
tp427
(lp428
S'30028019'
p429
aS'30012419'
p430
aS'30018051'
p431
aS'30016446'
p432
aS'30011228'
p433
aS'30012600'
p434
aS'30028975'
p435
aS'30028981'
p436
aS'30018742'
p437
aS'30019004'
p438
aS'30018622'
p439
aS'30017571'
p440
aS'30017575'
p441
aS'30017926'
p442
aS'30017927'
p443
aS'30018158'
p444
aS'30018160'
p445
aS'30018162'
p446
aS'30018166'
p447
as(S'subchap'
p448
S'30030814'
p449
tp450
(lp451
S'30032408'
p452
aS'30027201'
p453
as(S'billthu'
p454
S'30028840'
p455
tp456
(lp457
S'30031945'
p458
aS'30032015'
p459
aS'30032025'
p460
aS'30018566'
p461
aS'30027699'
p462
aS'30035695'
p463
aS'30048609'
p464
aS'30028299'
p465
aS'30032408'
p466
aS'30018620'
p467
aS'30024600'
p468
aS'30024661'
p469
as(S'subchap'
p470
S'30028842'
p471
tp472
(lp473
S'30032408'
p474
aS'30027201'
p475
as(S'subchap'
p476
S'30030791'
p477
tp478
(lp479
S'30032408'
p480
aS'30027201'
p481
as(S'duxiaoyang'
p482
S'30027988'
p483
tp484
(lp485
S'30030920'
p486
aS'30032583'
p487
aS'30032417'
p488
aS'30024934'
p489
aS'30019041'
p490
aS'30024275'
p491
aS'30024322'
p492
aS'30023495'
p493
aS'30024011'
p494
aS'30024038'
p495
aS'30025248'
p496
aS'30025855'
p497
aS'30026056'
p498
aS'30026347'
p499
aS'30032314'
p500
aS'30032865'
p501
aS'30017751'
p502
aS'30018159'
p503
as(S'subchap'
p504
S'30029280'
p505
tp506
(lp507
S'30032408'
p508
aS'30027201'
p509
as(S'rom_coder'
p510
S'30026352'
p511
tp512
(lp513
S'30029408'
p514
aS'30018450'
p515
aS'30019287'
p516
aS'30018890'
p517
aS'30023817'
p518
aS'30023818'
p519
as(S'cmax'
p520
S'30031131'
p521
tp522
(lp523
s(S'666462'
p524
S'30028182'
p525
tp526
(lp527
S'30027254'
p528
aS'30029353'
p529
as(S'subchap'
p530
S'30027995'
p531
tp532
(lp533
S'30032408'
p534
aS'30027201'
p535
as(S'gabyja'
p536
S'30029512'
p537
tp538
(lp539
S'30027447'
p540
aS'30027449'
p541
aS'30029942'
p542
aS'30024739'
p543
aS'30028078'
p544
aS'30019363'
p545
aS'30025806'
p546
aS'30025732'
p547
aS'30025995'
p548
aS'30025766'
p549
as(S'maymay'
p550
S'30029513'
p551
tp552
(lp553
S'30025948'
p554
aS'30027081'
p555
aS'30049821'
p556
aS'30050327'
p557
aS'30030922'
p558
aS'30033195'
p559
aS'30033197'
p560
aS'30036564'
p561
aS'30029942'
p562
aS'30029943'
p563
aS'30027697'
p564
aS'30027273'
p565
aS'30027274'
p566
aS'30019363'
p567
aS'30023802'
p568
aS'30019478'
p569
aS'30023517'
p570
aS'30032894'
p571
aS'30024197'
p572
aS'30019042'
p573
aS'30030334'
p574
aS'30026382'
p575
aS'30026383'
p576
aS'30030512'
p577
aS'30030513'
p578
as(S'cmax'
p579
S'30029244'
p580
tp581
(lp582
s(S'crackme'
p583
S'30027987'
p584
tp585
(lp586
s(S'cmax'
p587
S'30029472'
p588
tp589
(lp590
s(S'subchap'
p591
S'30027979'
p592
tp593
(lp594
S'30032408'
p595
aS'30027201'
p596
as(S'YeGGo'
p597
S'30027988'
p598
tp599
(lp600
S'30007561'
p601
aS'30007694'
p602
aS'30007861'
p603
aS'30006794'
p604
aS'30029868'
p605
aS'30007197'
p606
aS'30007217'
p607
aS'30007218'
p608
aS'30007406'
p609
aS'30008351'
p610
aS'30008683'
p611
as(S'BLE'
p612
S'30027981'
p613
tp614
(lp615
S'30025945'
p616
aS'30007214'
p617
aS'30007354'
p618
aS'30007438'
p619
aS'30007831'
p620
aS'30008013'
p621
aS'30008021'
p622
aS'30008036'
p623
aS'30008640'
p624
aS'30027071'
p625
aS'30027871'
p626
aS'30030792'
p627
aS'30030793'
p628
aS'30031082'
p629
aS'30006817'
p630
aS'30006832'
p631
aS'30031891'
p632
aS'30031889'
p633
aS'30031890'
p634
aS'30018459'
p635
aS'30035832'
p636
aS'30018450'
p637
aS'30026654'
p638
aS'30017273'
p639
aS'30034438'
p640
aS'30012954'
p641
aS'30027411'
p642
aS'30025723'
p643
aS'30027087'
p644
aS'30015683'
p645
aS'30015687'
p646
aS'30028778'
p647
aS'30015490'
p648
aS'30015806'
p649
aS'30015808'
p650
aS'30015812'
p651
aS'30015830'
p652
aS'30015862'
p653
aS'30015989'
p654
aS'30016545'
p655
aS'30027253'
p656
aS'30027255'
p657
aS'30027256'
p658
aS'30040475'
p659
aS'30006965'
p660
aS'30028769'
p661
aS'30018215'
p662
aS'30024760'
p663
aS'30019287'
p664
aS'30013947'
p665
aS'30014862'
p666
aS'30014866'
p667
aS'30014869'
p668
aS'30015715'
p669
aS'30016402'
p670
aS'30014083'
p671
aS'30014119'
p672
aS'30016900'
p673
aS'30017081'
p674
aS'30017393'
p675
aS'30017900'
p676
aS'30017923'
p677
aS'30018106'
p678
aS'30017422'
p679
aS'30023817'
p680
aS'30023839'
p681
aS'30025243'
p682
aS'30025366'
p683
aS'30027301'
p684
aS'30012063'
p685
aS'30013165'
p686
aS'30013169'
p687
aS'30013385'
p688
as(S'subchap'
p689
S'30030817'
p690
tp691
(lp692
S'30032408'
p693
aS'30027201'
p694
as(S'sampath01'
p695
S'30029009'
p696
tp697
(lp698
S'30028019'
p699
aS'30012419'
p700
aS'30018051'
p701
aS'30016446'
p702
aS'30011228'
p703
aS'30012600'
p704
aS'30028975'
p705
aS'30028981'
p706
aS'30018742'
p707
aS'30019004'
p708
aS'30018622'
p709
aS'30017571'
p710
aS'30017575'
p711
aS'30017926'
p712
aS'30017927'
p713
aS'30018158'
p714
aS'30018160'
p715
aS'30018162'
p716
aS'30018166'
p717
as(S'argolite'
p718
S'30027739'
p719
tp720
(lp721
S'30006792'
p722
aS'30005518'
p723
aS'30007354'
p724
aS'30007438'
p725
aS'30008127'
p726
aS'30027518'
p727
aS'30031528'
p728
aS'30031534'
p729
aS'30031536'
p730
aS'30031600'
p731
aS'30032020'
p732
aS'30032022'
p733
aS'30032180'
p734
aS'30032184'
p735
aS'30032243'
p736
aS'30006496'
p737
aS'30006851'
p738
aS'30006810'
p739
aS'30006811'
p740
aS'30049390'
p741
aS'30049815'
p742
aS'30005644'
p743
aS'30005929'
p744
aS'30011185'
p745
aS'30011564'
p746
aS'30011568'
p747
aS'30011579'
p748
aS'30011592'
p749
aS'30011612'
p750
aS'30011615'
p751
aS'30011714'
p752
aS'30011720'
p753
aS'30011726'
p754
aS'30011729'
p755
aS'30011826'
p756
aS'30011828'
p757
aS'30011830'
p758
aS'30012149'
p759
aS'30012151'
p760
aS'30012154'
p761
aS'30012157'
p762
aS'30012160'
p763
aS'30033428'
p764
aS'30034496'
p765
aS'30018462'
p766
aS'30018463'
p767
aS'30025476'
p768
aS'30025478'
p769
aS'30026925'
p770
aS'30026927'
p771
aS'30026940'
p772
aS'30027297'
p773
aS'30035183'
p774
aS'30036225'
p775
aS'30025257'
p776
aS'30025259'
p777
aS'30025509'
p778
aS'30025531'
p779
aS'30026505'
p780
aS'30026507'
p781
aS'30034439'
p782
aS'30042811'
p783
aS'30043014'
p784
aS'30012954'
p785
aS'30014031'
p786
aS'30014331'
p787
aS'30014498'
p788
aS'30014504'
p789
aS'30014535'
p790
aS'30014596'
p791
aS'30014599'
p792
aS'30012957'
p793
aS'30014013'
p794
aS'30014576'
p795
aS'30005823'
p796
aS'30006028'
p797
aS'30008660'
p798
aS'30026290'
p799
aS'30027696'
p800
aS'30013964'
p801
aS'30031767'
p802
aS'30008629'
p803
aS'30009874'
p804
aS'30033371'
p805
aS'30035695'
p806
aS'30015830'
p807
aS'30016446'
p808
aS'30016545'
p809
aS'30030344'
p810
aS'30030348'
p811
aS'30030905'
p812
aS'30031056'
p813
aS'30031303'
p814
aS'30026405'
p815
aS'30027261'
p816
aS'30027265'
p817
aS'30027269'
p818
aS'30027271'
p819
aS'30031139'
p820
aS'30031141'
p821
aS'30009280'
p822
aS'30009533'
p823
aS'30009538'
p824
aS'30009813'
p825
aS'30007250'
p826
aS'30007310'
p827
aS'30007314'
p828
aS'30007330'
p829
aS'30007408'
p830
aS'30007419'
p831
aS'30028980'
p832
aS'30028981'
p833
aS'30025002'
p834
aS'30019359'
p835
aS'30023203'
p836
aS'30025337'
p837
aS'30021882'
p838
aS'30019816'
p839
aS'30019817'
p840
aS'30014859'
p841
aS'30014119'
p842
aS'30006333'
p843
aS'30006264'
p844
aS'30006220'
p845
aS'30006363'
p846
aS'30006508'
p847
aS'30028361'
p848
aS'30031461'
p849
aS'30017081'
p850
aS'30017573'
p851
aS'30017575'
p852
aS'30017678'
p853
aS'30017702'
p854
aS'30017000'
p855
aS'30023773'
p856
aS'30023833'
p857
aS'30024419'
p858
aS'30025243'
p859
aS'30025636'
p860
aS'30027163'
p861
aS'30027305'
p862
aS'30027306'
p863
aS'30029974'
p864
aS'30029884'
p865
aS'30012062'
p866
as(S'nirmalrock'
p867
S'30029513'
p868
tp869
(lp870
S'30029943'
p871
aS'30030513'
p872
as(S'YeGGo'
p873
S'30027992'
p874
tp875
(lp876
S'30007561'
p877
aS'30007694'
p878
aS'30007861'
p879
aS'30006794'
p880
aS'30029868'
p881
aS'30007197'
p882
aS'30007217'
p883
aS'30007218'
p884
aS'30007406'
p885
aS'30008351'
p886
aS'30008683'
p887
as(S'subchap'
p888
S'30028840'
p889
tp890
(lp891
S'30032408'
p892
aS'30027201'
p893
as(S'winterflame'
p894
S'30027981'
p895
tp896
(lp897
S'30025945'
p898
aS'30008236'
p899
aS'30027871'
p900
aS'30030792'
p901
aS'30006832'
p902
aS'30049610'
p903
aS'30049821'
p904
aS'30050327'
p905
aS'30050581'
p906
aS'30027447'
p907
aS'30035832'
p908
aS'30043098'
p909
aS'30028937'
p910
aS'30029408'
p911
aS'30043390'
p912
aS'30017044'
p913
aS'30017273'
p914
aS'30034438'
p915
aS'30027411'
p916
aS'30027087'
p917
aS'30028778'
p918
aS'30015170'
p919
aS'30015989'
p920
aS'30027253'
p921
aS'30040475'
p922
aS'30013269'
p923
aS'30012869'
p924
aS'30028977'
p925
aS'30019363'
p926
aS'30023802'
p927
aS'30041737'
p928
aS'30018890'
p929
aS'30024822'
p930
aS'30013947'
p931
aS'30015715'
p932
aS'30007280'
p933
aS'30006306'
p934
aS'30006487'
p935
aS'30017571'
p936
aS'30017676'
p937
aS'30017862'
p938
aS'30027301'
p939
aS'30029877'
p940
aS'30011225'
p941
aS'30012063'
p942
aS'30012064'
p943
as.