(dp0
(S'hzieemin'
p1
S'30008512'
p2
tp3
(lp4
S'30009251'
p5
as(S'winterflame'
p6
S'30008236'
p7
tp8
(lp9
S'30027981'
p10
aS'30025945'
p11
aS'30027871'
p12
aS'30030792'
p13
aS'30006832'
p14
aS'30049610'
p15
aS'30049821'
p16
aS'30050327'
p17
aS'30050581'
p18
aS'30027447'
p19
aS'30035832'
p20
aS'30043098'
p21
aS'30028937'
p22
aS'30029408'
p23
aS'30043390'
p24
aS'30017044'
p25
aS'30017273'
p26
aS'30034438'
p27
aS'30027411'
p28
aS'30027087'
p29
aS'30028778'
p30
aS'30015170'
p31
aS'30015989'
p32
aS'30027253'
p33
aS'30040475'
p34
aS'30013269'
p35
aS'30012869'
p36
aS'30028977'
p37
aS'30019363'
p38
aS'30023802'
p39
aS'30041737'
p40
aS'30018890'
p41
aS'30024822'
p42
aS'30013947'
p43
aS'30015715'
p44
aS'30007280'
p45
aS'30006306'
p46
aS'30006487'
p47
aS'30017571'
p48
aS'30017676'
p49
aS'30017862'
p50
aS'30027301'
p51
aS'30029877'
p52
aS'30011225'
p53
aS'30012063'
p54
aS'30012064'
p55
as(S'googlesmkm'
p56
S'30009410'
p57
tp58
(lp59
S'30017061'
p60
aS'30012542'
p61
aS'30012544'
p62
aS'30013260'
p63
aS'30024987'
p64
aS'30012146'
p65
as(S'quesks'
p66
S'30009410'
p67
tp68
(lp69
S'30009251'
p70
aS'30009606'
p71
aS'30012674'
p72
aS'30007171'
p73
aS'30007217'
p74
aS'30011229'
p75
aS'30012067'
p76
aS'30012146'
p77
as(S'DanLazar'
p78
S'30008640'
p79
tp80
(lp81
S'30005633'
p82
aS'30007831'
p83
aS'30008018'
p84
aS'30008019'
p85
aS'30008020'
p86
aS'30008036'
p87
aS'30034497'
p88
aS'30034432'
p89
aS'30041691'
p90
aS'30014610'
p91
aS'30005913'
p92
aS'30012600'
p93
aS'30008816'
p94
aS'30008440'
p95
aS'30008441'
p96
aS'30006750'
p97
aS'30006877'
p98
aS'30017518'
p99
aS'30013152'
p100
aS'30007112'
p101
aS'30007288'
p102
aS'30006313'
p103
aS'30018158'
p104
aS'30013154'
p105
as(S'hzieemin'
p106
S'30009410'
p107
tp108
(lp109
S'30009251'
p110
as(S'hzieemin'
p111
S'30008843'
p112
tp113
(lp114
S'30009251'
p115
as(S'argolite'
p116
S'30008127'
p117
tp118
(lp119
S'30027739'
p120
aS'30029618'
p121
aS'30006792'
p122
aS'30005518'
p123
aS'30007354'
p124
aS'30007438'
p125
aS'30027518'
p126
aS'30031528'
p127
aS'30031534'
p128
aS'30031536'
p129
aS'30031600'
p130
aS'30032020'
p131
aS'30032022'
p132
aS'30032180'
p133
aS'30032184'
p134
aS'30032243'
p135
aS'30006496'
p136
aS'30006851'
p137
aS'30006810'
p138
aS'30006811'
p139
aS'30049390'
p140
aS'30049815'
p141
aS'30005644'
p142
aS'30005929'
p143
aS'30011185'
p144
aS'30011564'
p145
aS'30011568'
p146
aS'30011579'
p147
aS'30011592'
p148
aS'30011612'
p149
aS'30011615'
p150
aS'30011714'
p151
aS'30011720'
p152
aS'30011726'
p153
aS'30011729'
p154
aS'30011826'
p155
aS'30011828'
p156
aS'30011830'
p157
aS'30012149'
p158
aS'30012151'
p159
aS'30012154'
p160
aS'30012157'
p161
aS'30012160'
p162
aS'30033428'
p163
aS'30034496'
p164
aS'30018462'
p165
aS'30018463'
p166
aS'30025476'
p167
aS'30025478'
p168
aS'30026925'
p169
aS'30026927'
p170
aS'30026940'
p171
aS'30027297'
p172
aS'30035183'
p173
aS'30036225'
p174
aS'30025257'
p175
aS'30025259'
p176
aS'30025509'
p177
aS'30025531'
p178
aS'30026505'
p179
aS'30026507'
p180
aS'30034439'
p181
aS'30042811'
p182
aS'30043014'
p183
aS'30012954'
p184
aS'30014031'
p185
aS'30014331'
p186
aS'30014498'
p187
aS'30014504'
p188
aS'30014535'
p189
aS'30014596'
p190
aS'30014599'
p191
aS'30012957'
p192
aS'30014013'
p193
aS'30014576'
p194
aS'30005823'
p195
aS'30006028'
p196
aS'30008660'
p197
aS'30026290'
p198
aS'30027696'
p199
aS'30013964'
p200
aS'30031767'
p201
aS'30008629'
p202
aS'30009874'
p203
aS'30033371'
p204
aS'30035695'
p205
aS'30015830'
p206
aS'30016446'
p207
aS'30016545'
p208
aS'30030344'
p209
aS'30030348'
p210
aS'30030905'
p211
aS'30031056'
p212
aS'30031303'
p213
aS'30026405'
p214
aS'30027261'
p215
aS'30027265'
p216
aS'30027269'
p217
aS'30027271'
p218
aS'30031139'
p219
aS'30031141'
p220
aS'30009280'
p221
aS'30009533'
p222
aS'30009538'
p223
aS'30009813'
p224
aS'30007250'
p225
aS'30007310'
p226
aS'30007314'
p227
aS'30007330'
p228
aS'30007408'
p229
aS'30007419'
p230
aS'30028980'
p231
aS'30028981'
p232
aS'30025002'
p233
aS'30019359'
p234
aS'30023203'
p235
aS'30025337'
p236
aS'30021882'
p237
aS'30019816'
p238
aS'30019817'
p239
aS'30014859'
p240
aS'30014119'
p241
aS'30006333'
p242
aS'30006264'
p243
aS'30006220'
p244
aS'30006363'
p245
aS'30006508'
p246
aS'30028361'
p247
aS'30031461'
p248
aS'30017081'
p249
aS'30017573'
p250
aS'30017575'
p251
aS'30017678'
p252
aS'30017702'
p253
aS'30017000'
p254
aS'30023773'
p255
aS'30023833'
p256
aS'30024419'
p257
aS'30025243'
p258
aS'30025636'
p259
aS'30027163'
p260
aS'30027305'
p261
aS'30027306'
p262
aS'30029974'
p263
aS'30029884'
p264
aS'30012062'
p265
as(S'quesks'
p266
S'30009180'
p267
tp268
(lp269
S'30009251'
p270
aS'30009606'
p271
aS'30012674'
p272
aS'30007171'
p273
aS'30007217'
p274
aS'30011229'
p275
aS'30012067'
p276
aS'30012146'
p277
as(S'BLE'
p278
S'30008640'
p279
tp280
(lp281
S'30027981'
p282
aS'30025945'
p283
aS'30007214'
p284
aS'30007354'
p285
aS'30007438'
p286
aS'30007831'
p287
aS'30008013'
p288
aS'30008021'
p289
aS'30008036'
p290
aS'30027071'
p291
aS'30027871'
p292
aS'30030792'
p293
aS'30030793'
p294
aS'30031082'
p295
aS'30006817'
p296
aS'30006832'
p297
aS'30031891'
p298
aS'30031889'
p299
aS'30031890'
p300
aS'30018459'
p301
aS'30035832'
p302
aS'30018450'
p303
aS'30026654'
p304
aS'30017273'
p305
aS'30034438'
p306
aS'30012954'
p307
aS'30027411'
p308
aS'30025723'
p309
aS'30027087'
p310
aS'30015683'
p311
aS'30015687'
p312
aS'30028778'
p313
aS'30015490'
p314
aS'30015806'
p315
aS'30015808'
p316
aS'30015812'
p317
aS'30015830'
p318
aS'30015862'
p319
aS'30015989'
p320
aS'30016545'
p321
aS'30027253'
p322
aS'30027255'
p323
aS'30027256'
p324
aS'30040475'
p325
aS'30006965'
p326
aS'30028769'
p327
aS'30018215'
p328
aS'30024760'
p329
aS'30019287'
p330
aS'30013947'
p331
aS'30014862'
p332
aS'30014866'
p333
aS'30014869'
p334
aS'30015715'
p335
aS'30016402'
p336
aS'30014083'
p337
aS'30014119'
p338
aS'30016900'
p339
aS'30017081'
p340
aS'30017393'
p341
aS'30017900'
p342
aS'30017923'
p343
aS'30018106'
p344
aS'30017422'
p345
aS'30023817'
p346
aS'30023839'
p347
aS'30025243'
p348
aS'30025366'
p349
aS'30027301'
p350
aS'30012063'
p351
aS'30013165'
p352
aS'30013169'
p353
aS'30013385'
p354
as(S'Kobe24'
p355
S'30008233'
p356
tp357
(lp358
S'30006698'
p359
aS'30006735'
p360
aS'30015864'
p361
aS'30017900'
p362
aS'30011480'
p363
as(S'Jooc'
p364
S'30009410'
p365
tp366
(lp367
S'30007511'
p368
aS'30014608'
p369
aS'30009251'
p370
aS'30009606'
p371
as(S'pajdo'
p372
S'30009410'
p373
tp374
(lp375
S'30029098'
p376
aS'30031048'
p377
aS'30025322'
p378
as(S'Jooc'
p379
S'30008639'
p380
tp381
(lp382
S'30007511'
p383
aS'30014608'
p384
aS'30009251'
p385
aS'30009606'
p386
as(S'Jooc'
p387
S'30008843'
p388
tp389
(lp390
S'30007511'
p391
aS'30014608'
p392
aS'30009251'
p393
aS'30009606'
p394
as(S'iversonLv'
p395
S'30009410'
p396
tp397
(lp398
S'30012674'
p399
aS'30013374'
p400
aS'30011229'
p401
aS'30012067'
p402
as(S'lxj09'
p403
S'30008236'
p404
tp405
(lp406
S'30025948'
p407
aS'30007840'
p408
aS'30008737'
p409
aS'30008738'
p410
aS'30025094'
p411
aS'30027294'
p412
aS'30015904'
p413
aS'30019368'
p414
aS'30019478'
p415
aS'30023517'
p416
aS'30015715'
p417
aS'30030029'
p418
aS'30031394'
p419
aS'30031679'
p420
as(S'iversonLv'
p421
S'30012632'
p422
tp423
(lp424
S'30012674'
p425
aS'30013374'
p426
aS'30011229'
p427
aS'30012067'
p428
as(S'MiG-29'
p429
S'30008233'
p430
tp431
(lp432
S'30005504'
p433
aS'30006563'
p434
aS'30005613'
p435
aS'30007214'
p436
aS'30006305'
p437
aS'30006631'
p438
aS'30005644'
p439
aS'30034496'
p440
aS'30018459'
p441
aS'30035183'
p442
aS'30028127'
p443
aS'30028937'
p444
aS'30016392'
p445
aS'30010568'
p446
aS'30010570'
p447
aS'30005691'
p448
aS'30012616'
p449
aS'30024888'
p450
aS'30008440'
p451
aS'30008441'
p452
aS'30006640'
p453
aS'30024760'
p454
aS'30032404'
p455
aS'30019078'
p456
aS'30013706'
p457
aS'30006056'
p458
aS'30006162'
p459
aS'30016218'
p460
aS'30016900'
p461
aS'30023818'
p462
as(S'iversonLv'
p463
S'30011342'
p464
tp465
(lp466
S'30012674'
p467
aS'30013374'
p468
aS'30011229'
p469
aS'30012067'
p470
as(S'isv'
p471
S'30008238'
p472
tp473
(lp474
S'30006531'
p475
aS'30006566'
p476
aS'30006697'
p477
aS'30006663'
p478
aS'30017674'
p479
as(S'hzieemin'
p480
S'30009180'
p481
tp482
(lp483
S'30009251'
p484
as(S'Jooc'
p485
S'30008512'
p486
tp487
(lp488
S'30007511'
p489
aS'30014608'
p490
aS'30009251'
p491
aS'30009606'
p492
as(S'Jooc'
p493
S'30009434'
p494
tp495
(lp496
S'30007511'
p497
aS'30014608'
p498
aS'30009251'
p499
aS'30009606'
p500
as(S'iversonLv'
p501
S'30008843'
p502
tp503
(lp504
S'30012674'
p505
aS'30013374'
p506
aS'30011229'
p507
aS'30012067'
p508
as(S'soso0574'
p509
S'30011342'
p510
tp511
(lp512
S'30007311'
p513
aS'30041357'
p514
aS'30029098'
p515
aS'30032029'
p516
aS'30018566'
p517
aS'30022361'
p518
aS'30012674'
p519
aS'30019025'
p520
aS'30007171'
p521
aS'30025289'
p522
aS'30019357'
p523
aS'30025322'
p524
aS'30031258'
p525
aS'30007410'
p526
aS'30007411'
p527
aS'30007424'
p528
aS'30007425'
p529
aS'30017173'
p530
aS'30018499'
p531
aS'30017775'
p532
aS'30012067'
p533
as(S'AjJi'
p534
S'30008843'
p535
tp536
(lp537
S'30007511'
p538
aS'30007171'
p539
aS'30018938'
p540
as.