(dp0
(S'albertwang'
p1
S'30050164'
p2
tp3
(lp4
S'30025947'
p5
aS'30027073'
p6
aS'30033425'
p7
aS'30025478'
p8
aS'30026925'
p9
aS'30029304'
p10
aS'30031428'
p11
aS'30031832'
p12
aS'30025533'
p13
aS'30031104'
p14
aS'30028780'
p15
aS'30033371'
p16
aS'30034947'
p17
aS'30034948'
p18
aS'30036123'
p19
aS'30028975'
p20
aS'30030837'
p21
aS'30031129'
p22
aS'30025318'
p23
aS'30046428'
p24
aS'30019358'
p25
aS'30043038'
p26
aS'30043216'
p27
aS'30032407'
p28
aS'30028358'
p29
aS'30028361'
p30
aS'30030909'
p31
aS'30023840'
p32
as(S'winterflame'
p33
S'30049821'
p34
tp35
(lp36
S'30027981'
p37
aS'30025945'
p38
aS'30008236'
p39
aS'30027871'
p40
aS'30030792'
p41
aS'30006832'
p42
aS'30027447'
p43
aS'30035832'
p44
aS'30043098'
p45
aS'30028937'
p46
aS'30029408'
p47
aS'30043390'
p48
aS'30017044'
p49
aS'30017273'
p50
aS'30034438'
p51
aS'30027411'
p52
aS'30027087'
p53
aS'30028778'
p54
aS'30015170'
p55
aS'30015989'
p56
aS'30027253'
p57
aS'30040475'
p58
aS'30013269'
p59
aS'30012869'
p60
aS'30028977'
p61
aS'30019363'
p62
aS'30023802'
p63
aS'30041737'
p64
aS'30018890'
p65
aS'30024822'
p66
aS'30013947'
p67
aS'30015715'
p68
aS'30007280'
p69
aS'30006306'
p70
aS'30006487'
p71
aS'30017571'
p72
aS'30017676'
p73
aS'30017862'
p74
aS'30027301'
p75
aS'30029877'
p76
aS'30011225'
p77
aS'30012063'
p78
aS'30012064'
p79
as(S'gmagniez'
p80
S'30050045'
p81
tp82
(lp83
s(S'winterflame'
p84
S'30050327'
p85
tp86
(lp87
S'30027981'
p88
aS'30025945'
p89
aS'30008236'
p90
aS'30027871'
p91
aS'30030792'
p92
aS'30006832'
p93
aS'30027447'
p94
aS'30035832'
p95
aS'30043098'
p96
aS'30028937'
p97
aS'30029408'
p98
aS'30043390'
p99
aS'30017044'
p100
aS'30017273'
p101
aS'30034438'
p102
aS'30027411'
p103
aS'30027087'
p104
aS'30028778'
p105
aS'30015170'
p106
aS'30015989'
p107
aS'30027253'
p108
aS'30040475'
p109
aS'30013269'
p110
aS'30012869'
p111
aS'30028977'
p112
aS'30019363'
p113
aS'30023802'
p114
aS'30041737'
p115
aS'30018890'
p116
aS'30024822'
p117
aS'30013947'
p118
aS'30015715'
p119
aS'30007280'
p120
aS'30006306'
p121
aS'30006487'
p122
aS'30017571'
p123
aS'30017676'
p124
aS'30017862'
p125
aS'30027301'
p126
aS'30029877'
p127
aS'30011225'
p128
aS'30012063'
p129
aS'30012064'
p130
as(S'argolite'
p131
S'30049390'
p132
tp133
(lp134
S'30027739'
p135
aS'30029618'
p136
aS'30006792'
p137
aS'30005518'
p138
aS'30007354'
p139
aS'30007438'
p140
aS'30008127'
p141
aS'30027518'
p142
aS'30031528'
p143
aS'30031534'
p144
aS'30031536'
p145
aS'30031600'
p146
aS'30032020'
p147
aS'30032022'
p148
aS'30032180'
p149
aS'30032184'
p150
aS'30032243'
p151
aS'30006496'
p152
aS'30006851'
p153
aS'30006810'
p154
aS'30006811'
p155
aS'30005644'
p156
aS'30005929'
p157
aS'30011185'
p158
aS'30011564'
p159
aS'30011568'
p160
aS'30011579'
p161
aS'30011592'
p162
aS'30011612'
p163
aS'30011615'
p164
aS'30011714'
p165
aS'30011720'
p166
aS'30011726'
p167
aS'30011729'
p168
aS'30011826'
p169
aS'30011828'
p170
aS'30011830'
p171
aS'30012149'
p172
aS'30012151'
p173
aS'30012154'
p174
aS'30012157'
p175
aS'30012160'
p176
aS'30033428'
p177
aS'30034496'
p178
aS'30018462'
p179
aS'30018463'
p180
aS'30025476'
p181
aS'30025478'
p182
aS'30026925'
p183
aS'30026927'
p184
aS'30026940'
p185
aS'30027297'
p186
aS'30035183'
p187
aS'30036225'
p188
aS'30025257'
p189
aS'30025259'
p190
aS'30025509'
p191
aS'30025531'
p192
aS'30026505'
p193
aS'30026507'
p194
aS'30034439'
p195
aS'30042811'
p196
aS'30043014'
p197
aS'30012954'
p198
aS'30014031'
p199
aS'30014331'
p200
aS'30014498'
p201
aS'30014504'
p202
aS'30014535'
p203
aS'30014596'
p204
aS'30014599'
p205
aS'30012957'
p206
aS'30014013'
p207
aS'30014576'
p208
aS'30005823'
p209
aS'30006028'
p210
aS'30008660'
p211
aS'30026290'
p212
aS'30027696'
p213
aS'30013964'
p214
aS'30031767'
p215
aS'30008629'
p216
aS'30009874'
p217
aS'30033371'
p218
aS'30035695'
p219
aS'30015830'
p220
aS'30016446'
p221
aS'30016545'
p222
aS'30030344'
p223
aS'30030348'
p224
aS'30030905'
p225
aS'30031056'
p226
aS'30031303'
p227
aS'30026405'
p228
aS'30027261'
p229
aS'30027265'
p230
aS'30027269'
p231
aS'30027271'
p232
aS'30031139'
p233
aS'30031141'
p234
aS'30009280'
p235
aS'30009533'
p236
aS'30009538'
p237
aS'30009813'
p238
aS'30007250'
p239
aS'30007310'
p240
aS'30007314'
p241
aS'30007330'
p242
aS'30007408'
p243
aS'30007419'
p244
aS'30028980'
p245
aS'30028981'
p246
aS'30025002'
p247
aS'30019359'
p248
aS'30023203'
p249
aS'30025337'
p250
aS'30021882'
p251
aS'30019816'
p252
aS'30019817'
p253
aS'30014859'
p254
aS'30014119'
p255
aS'30006333'
p256
aS'30006264'
p257
aS'30006220'
p258
aS'30006363'
p259
aS'30006508'
p260
aS'30028361'
p261
aS'30031461'
p262
aS'30017081'
p263
aS'30017573'
p264
aS'30017575'
p265
aS'30017678'
p266
aS'30017702'
p267
aS'30017000'
p268
aS'30023773'
p269
aS'30023833'
p270
aS'30024419'
p271
aS'30025243'
p272
aS'30025636'
p273
aS'30027163'
p274
aS'30027305'
p275
aS'30027306'
p276
aS'30029974'
p277
aS'30029884'
p278
aS'30012062'
p279
as(S'winterflame'
p280
S'30050581'
p281
tp282
(lp283
S'30027981'
p284
aS'30025945'
p285
aS'30008236'
p286
aS'30027871'
p287
aS'30030792'
p288
aS'30006832'
p289
aS'30027447'
p290
aS'30035832'
p291
aS'30043098'
p292
aS'30028937'
p293
aS'30029408'
p294
aS'30043390'
p295
aS'30017044'
p296
aS'30017273'
p297
aS'30034438'
p298
aS'30027411'
p299
aS'30027087'
p300
aS'30028778'
p301
aS'30015170'
p302
aS'30015989'
p303
aS'30027253'
p304
aS'30040475'
p305
aS'30013269'
p306
aS'30012869'
p307
aS'30028977'
p308
aS'30019363'
p309
aS'30023802'
p310
aS'30041737'
p311
aS'30018890'
p312
aS'30024822'
p313
aS'30013947'
p314
aS'30015715'
p315
aS'30007280'
p316
aS'30006306'
p317
aS'30006487'
p318
aS'30017571'
p319
aS'30017676'
p320
aS'30017862'
p321
aS'30027301'
p322
aS'30029877'
p323
aS'30011225'
p324
aS'30012063'
p325
aS'30012064'
p326
as(S'jzh08'
p327
S'30049610'
p328
tp329
(lp330
s(S'bannie2492'
p331
S'30050331'
p332
tp333
(lp334
S'30027701'
p335
aS'30027713'
p336
aS'30027264'
p337
aS'30048519'
p338
aS'30030029'
p339
as(S'ShindouHikaru'
p340
S'30050327'
p341
tp342
(lp343
S'30006830'
p344
aS'30033422'
p345
aS'30006662'
p346
aS'30006487'
p347
as(S'summergrass'
p348
S'30050327'
p349
tp350
(lp351
s(S'flytoj2ee'
p352
S'30050045'
p353
tp354
(lp355
S'30005610'
p356
aS'30005631'
p357
aS'30005743'
p358
aS'30014607'
p359
aS'30014599'
p360
aS'30008890'
p361
aS'30027720'
p362
aS'30027726'
p363
aS'30027728'
p364
aS'30031574'
p365
aS'30031576'
p366
aS'30031943'
p367
aS'30034065'
p368
aS'30049606'
p369
aS'30049629'
p370
aS'30049724'
p371
aS'30050359'
p372
aS'30023498'
p373
aS'30018621'
p374
aS'30014869'
p375
aS'30007121'
p376
aS'30025650'
p377
aS'30031721'
p378
as(S'ShindouHikaru'
p379
S'30050581'
p380
tp381
(lp382
S'30006830'
p383
aS'30033422'
p384
aS'30006662'
p385
aS'30006487'
p386
as(S'maymay'
p387
S'30050327'
p388
tp389
(lp390
S'30029512'
p391
aS'30029513'
p392
aS'30025948'
p393
aS'30027081'
p394
aS'30030922'
p395
aS'30033195'
p396
aS'30033197'
p397
aS'30036564'
p398
aS'30029942'
p399
aS'30029943'
p400
aS'30027697'
p401
aS'30027273'
p402
aS'30027274'
p403
aS'30019363'
p404
aS'30023802'
p405
aS'30019478'
p406
aS'30023517'
p407
aS'30032894'
p408
aS'30024197'
p409
aS'30019042'
p410
aS'30030334'
p411
aS'30026382'
p412
aS'30026383'
p413
aS'30030512'
p414
aS'30030513'
p415
as(S'mawueli'
p416
S'30050581'
p417
tp418
(lp419
s(S'bannie2492'
p420
S'30049943'
p421
tp422
(lp423
S'30027701'
p424
aS'30027713'
p425
aS'30027264'
p426
aS'30048519'
p427
aS'30030029'
p428
as(S'argolite'
p429
S'30049815'
p430
tp431
(lp432
S'30027739'
p433
aS'30029618'
p434
aS'30006792'
p435
aS'30005518'
p436
aS'30007354'
p437
aS'30007438'
p438
aS'30008127'
p439
aS'30027518'
p440
aS'30031528'
p441
aS'30031534'
p442
aS'30031536'
p443
aS'30031600'
p444
aS'30032020'
p445
aS'30032022'
p446
aS'30032180'
p447
aS'30032184'
p448
aS'30032243'
p449
aS'30006496'
p450
aS'30006851'
p451
aS'30006810'
p452
aS'30006811'
p453
aS'30005644'
p454
aS'30005929'
p455
aS'30011185'
p456
aS'30011564'
p457
aS'30011568'
p458
aS'30011579'
p459
aS'30011592'
p460
aS'30011612'
p461
aS'30011615'
p462
aS'30011714'
p463
aS'30011720'
p464
aS'30011726'
p465
aS'30011729'
p466
aS'30011826'
p467
aS'30011828'
p468
aS'30011830'
p469
aS'30012149'
p470
aS'30012151'
p471
aS'30012154'
p472
aS'30012157'
p473
aS'30012160'
p474
aS'30033428'
p475
aS'30034496'
p476
aS'30018462'
p477
aS'30018463'
p478
aS'30025476'
p479
aS'30025478'
p480
aS'30026925'
p481
aS'30026927'
p482
aS'30026940'
p483
aS'30027297'
p484
aS'30035183'
p485
aS'30036225'
p486
aS'30025257'
p487
aS'30025259'
p488
aS'30025509'
p489
aS'30025531'
p490
aS'30026505'
p491
aS'30026507'
p492
aS'30034439'
p493
aS'30042811'
p494
aS'30043014'
p495
aS'30012954'
p496
aS'30014031'
p497
aS'30014331'
p498
aS'30014498'
p499
aS'30014504'
p500
aS'30014535'
p501
aS'30014596'
p502
aS'30014599'
p503
aS'30012957'
p504
aS'30014013'
p505
aS'30014576'
p506
aS'30005823'
p507
aS'30006028'
p508
aS'30008660'
p509
aS'30026290'
p510
aS'30027696'
p511
aS'30013964'
p512
aS'30031767'
p513
aS'30008629'
p514
aS'30009874'
p515
aS'30033371'
p516
aS'30035695'
p517
aS'30015830'
p518
aS'30016446'
p519
aS'30016545'
p520
aS'30030344'
p521
aS'30030348'
p522
aS'30030905'
p523
aS'30031056'
p524
aS'30031303'
p525
aS'30026405'
p526
aS'30027261'
p527
aS'30027265'
p528
aS'30027269'
p529
aS'30027271'
p530
aS'30031139'
p531
aS'30031141'
p532
aS'30009280'
p533
aS'30009533'
p534
aS'30009538'
p535
aS'30009813'
p536
aS'30007250'
p537
aS'30007310'
p538
aS'30007314'
p539
aS'30007330'
p540
aS'30007408'
p541
aS'30007419'
p542
aS'30028980'
p543
aS'30028981'
p544
aS'30025002'
p545
aS'30019359'
p546
aS'30023203'
p547
aS'30025337'
p548
aS'30021882'
p549
aS'30019816'
p550
aS'30019817'
p551
aS'30014859'
p552
aS'30014119'
p553
aS'30006333'
p554
aS'30006264'
p555
aS'30006220'
p556
aS'30006363'
p557
aS'30006508'
p558
aS'30028361'
p559
aS'30031461'
p560
aS'30017081'
p561
aS'30017573'
p562
aS'30017575'
p563
aS'30017678'
p564
aS'30017702'
p565
aS'30017000'
p566
aS'30023773'
p567
aS'30023833'
p568
aS'30024419'
p569
aS'30025243'
p570
aS'30025636'
p571
aS'30027163'
p572
aS'30027305'
p573
aS'30027306'
p574
aS'30029974'
p575
aS'30029884'
p576
aS'30012062'
p577
as(S'zsudraco'
p578
S'30049390'
p579
tp580
(lp581
S'30006903'
p582
aS'30005518'
p583
aS'30005612'
p584
aS'30005614'
p585
aS'30005747'
p586
aS'30007471'
p587
aS'30031526'
p588
aS'30031532'
p589
aS'30018463'
p590
aS'30024966'
p591
aS'30023208'
p592
aS'30026094'
p593
aS'30026096'
p594
aS'30026098'
p595
aS'30005823'
p596
aS'30006300'
p597
aS'30027695'
p598
aS'30027696'
p599
aS'30034665'
p600
aS'30035148'
p601
aS'30035149'
p602
aS'30027259'
p603
aS'30027261'
p604
aS'30027267'
p605
aS'30013581'
p606
aS'30028980'
p607
aS'30031457'
p608
aS'30046430'
p609
aS'30019359'
p610
aS'30024590'
p611
aS'30025301'
p612
aS'30028298'
p613
aS'30023839'
p614
aS'30027302'
p615
aS'30027306'
p616
aS'30029881'
p617
as(S'paolog'
p618
S'30049815'
p619
tp620
(lp621
S'30043014'
p622
aS'30040475'
p623
as(S'kanakarajank'
p624
S'30050045'
p625
tp626
(lp627
S'30018621'
p628
as(S'norrista'
p629
S'30050327'
p630
tp631
(lp632
s(S'maymay'
p633
S'30049821'
p634
tp635
(lp636
S'30029512'
p637
aS'30029513'
p638
aS'30025948'
p639
aS'30027081'
p640
aS'30030922'
p641
aS'30033195'
p642
aS'30033197'
p643
aS'30036564'
p644
aS'30029942'
p645
aS'30029943'
p646
aS'30027697'
p647
aS'30027273'
p648
aS'30027274'
p649
aS'30019363'
p650
aS'30023802'
p651
aS'30019478'
p652
aS'30023517'
p653
aS'30032894'
p654
aS'30024197'
p655
aS'30019042'
p656
aS'30030334'
p657
aS'30026382'
p658
aS'30026383'
p659
aS'30030512'
p660
aS'30030513'
p661
as(S'onsky'
p662
S'30050045'
p663
tp664
(lp665
S'30005637'
p666
aS'30014505'
p667
aS'30013941'
p668
aS'30006589'
p669
aS'30019407'
p670
aS'30019408'
p671
as(S'zsudraco'
p672
S'30050164'
p673
tp674
(lp675
S'30006903'
p676
aS'30005518'
p677
aS'30005612'
p678
aS'30005614'
p679
aS'30005747'
p680
aS'30007471'
p681
aS'30031526'
p682
aS'30031532'
p683
aS'30018463'
p684
aS'30024966'
p685
aS'30023208'
p686
aS'30026094'
p687
aS'30026096'
p688
aS'30026098'
p689
aS'30005823'
p690
aS'30006300'
p691
aS'30027695'
p692
aS'30027696'
p693
aS'30034665'
p694
aS'30035148'
p695
aS'30035149'
p696
aS'30027259'
p697
aS'30027261'
p698
aS'30027267'
p699
aS'30013581'
p700
aS'30028980'
p701
aS'30031457'
p702
aS'30046430'
p703
aS'30019359'
p704
aS'30024590'
p705
aS'30025301'
p706
aS'30028298'
p707
aS'30023839'
p708
aS'30027302'
p709
aS'30027306'
p710
aS'30029881'
p711
as(S'ahmed.seddiq'
p712
S'30049945'
p713
tp714
(lp715
S'30028784'
p716
aS'30028786'
p717
aS'30028788'
p718
aS'30030311'
p719
aS'30030313'
p720
aS'30030315'
p721
aS'30031755'
p722
aS'30032569'
p723
aS'30032712'
p724
aS'30032718'
p725
aS'30033269'
p726
aS'30033744'
p727
aS'30033890'
p728
aS'30034445'
p729
aS'30035576'
p730
as(S'codedoc'
p731
S'30049610'
p732
tp733
(lp734
S'30005611'
p735
aS'30005633'
p736
aS'30027087'
p737
aS'30035517'
p738
as(S'winterflame'
p739
S'30049610'
p740
tp741
(lp742
S'30027981'
p743
aS'30025945'
p744
aS'30008236'
p745
aS'30027871'
p746
aS'30030792'
p747
aS'30006832'
p748
aS'30027447'
p749
aS'30035832'
p750
aS'30043098'
p751
aS'30028937'
p752
aS'30029408'
p753
aS'30043390'
p754
aS'30017044'
p755
aS'30017273'
p756
aS'30034438'
p757
aS'30027411'
p758
aS'30027087'
p759
aS'30028778'
p760
aS'30015170'
p761
aS'30015989'
p762
aS'30027253'
p763
aS'30040475'
p764
aS'30013269'
p765
aS'30012869'
p766
aS'30028977'
p767
aS'30019363'
p768
aS'30023802'
p769
aS'30041737'
p770
aS'30018890'
p771
aS'30024822'
p772
aS'30013947'
p773
aS'30015715'
p774
aS'30007280'
p775
aS'30006306'
p776
aS'30006487'
p777
aS'30017571'
p778
aS'30017676'
p779
aS'30017862'
p780
aS'30027301'
p781
aS'30029877'
p782
aS'30011225'
p783
aS'30012063'
p784
aS'30012064'
p785
as(S'albertwang'
p786
S'30049390'
p787
tp788
(lp789
S'30025947'
p790
aS'30027073'
p791
aS'30033425'
p792
aS'30025478'
p793
aS'30026925'
p794
aS'30029304'
p795
aS'30031428'
p796
aS'30031832'
p797
aS'30025533'
p798
aS'30031104'
p799
aS'30028780'
p800
aS'30033371'
p801
aS'30034947'
p802
aS'30034948'
p803
aS'30036123'
p804
aS'30028975'
p805
aS'30030837'
p806
aS'30031129'
p807
aS'30025318'
p808
aS'30046428'
p809
aS'30019358'
p810
aS'30043038'
p811
aS'30043216'
p812
aS'30032407'
p813
aS'30028358'
p814
aS'30028361'
p815
aS'30030909'
p816
aS'30023840'
p817
as(S'moulyg'
p818
S'30049261'
p819
tp820
(lp821
S'30028779'
p822
aS'30029353'
p823
aS'30024661'
p824
aS'30025133'
p825
aS'30025163'
p826
aS'30024322'
p827
as(S'zsudraco'
p828
S'30049815'
p829
tp830
(lp831
S'30006903'
p832
aS'30005518'
p833
aS'30005612'
p834
aS'30005614'
p835
aS'30005747'
p836
aS'30007471'
p837
aS'30031526'
p838
aS'30031532'
p839
aS'30018463'
p840
aS'30024966'
p841
aS'30023208'
p842
aS'30026094'
p843
aS'30026096'
p844
aS'30026098'
p845
aS'30005823'
p846
aS'30006300'
p847
aS'30027695'
p848
aS'30027696'
p849
aS'30034665'
p850
aS'30035148'
p851
aS'30035149'
p852
aS'30027259'
p853
aS'30027261'
p854
aS'30027267'
p855
aS'30013581'
p856
aS'30028980'
p857
aS'30031457'
p858
aS'30046430'
p859
aS'30019359'
p860
aS'30024590'
p861
aS'30025301'
p862
aS'30028298'
p863
aS'30023839'
p864
aS'30027302'
p865
aS'30027306'
p866
aS'30029881'
p867
as(S'MonicaMuranyi'
p868
S'30049625'
p869
tp870
(lp871
S'30024739'
p872
aS'30019363'
p873
aS'30016272'
p874
aS'30035500'
p875
as(S'codedoc'
p876
S'30050163'
p877
tp878
(lp879
S'30005611'
p880
aS'30005633'
p881
aS'30027087'
p882
aS'30035517'
p883
as(S'stevenfrog'
p884
S'30050045'
p885
tp886
(lp887
S'30025260'
p888
aS'30023209'
p889
aS'30014606'
p890
aS'30015293'
p891
aS'30027715'
p892
aS'30029682'
p893
aS'30031490'
p894
aS'30031758'
p895
aS'30031743'
p896
aS'30027287'
p897
aS'30027289'
p898
aS'30034481'
p899
aS'30034482'
p900
aS'30034483'
p901
aS'30038791'
p902
aS'30007426'
p903
aS'30007461'
p904
aS'30030838'
p905
aS'30048491'
p906
aS'30048494'
p907
aS'30048889'
p908
aS'30048908'
p909
aS'30049224'
p910
aS'30049527'
p911
aS'30024473'
p912
aS'30024734'
p913
aS'30024809'
p914
aS'30025279'
p915
aS'30025302'
p916
aS'30007198'
p917
aS'30018171'
p918
aS'30018161'
p919
aS'30033211'
p920
as(S'Brightspring'
p921
S'30050163'
p922
tp923
(lp924
S'30043098'
p925
aS'30043390'
p926
aS'30040475'
p927
aS'30041737'
p928
as(S'gvir'
p929
S'30050163'
p930
tp931
(lp932
s.