(dp0
(S'malshurafa'
p1
S'30027366'
p2
tp3
(lp4
S'30026554'
p5
as(S'monopoly'
p6
S'30026662'
p7
tp8
(lp9
S'30027077'
p10
aS'30027190'
p11
as(S'14blades'
p12
S'30026654'
p13
tp14
(lp15
S'30016900'
p16
as(S'j3_guile'
p17
S'30026656'
p18
tp19
(lp20
S'30031090'
p21
aS'30032751'
p22
aS'30033315'
p23
aS'30033737'
p24
aS'30033956'
p25
aS'30034282'
p26
aS'30010571'
p27
aS'30027281'
p28
aS'30027283'
p29
aS'30027285'
p30
aS'30027287'
p31
aS'30027289'
p32
aS'30034480'
p33
aS'30034481'
p34
aS'30025697'
p35
aS'30026195'
p36
aS'30023381'
p37
aS'30023382'
p38
aS'30023385'
p39
aS'30024914'
p40
aS'30025148'
p41
aS'30025189'
p42
aS'30025246'
p43
aS'30025247'
p44
aS'30025392'
p45
aS'30006696'
p46
aS'30006744'
p47
aS'30006839'
p48
aS'30018453'
p49
aS'30018454'
p50
aS'30018891'
p51
aS'30019223'
p52
aS'30019232'
p53
aS'30019798'
p54
aS'30020548'
p55
aS'30021424'
p56
aS'30023400'
p57
aS'30024560'
p58
aS'30025198'
p59
aS'30025242'
p60
aS'30025428'
p61
as(S'gabyja'
p62
S'30028078'
p63
tp64
(lp65
S'30029280'
p66
aS'30029512'
p67
aS'30027447'
p68
aS'30027449'
p69
aS'30029942'
p70
aS'30024739'
p71
aS'30019363'
p72
aS'30025806'
p73
aS'30025732'
p74
aS'30025995'
p75
aS'30025766'
p76
as(S'DixonD'
p77
S'30027366'
p78
tp79
(lp80
S'30007125'
p81
aS'30025336'
p82
as(S'monopoly'
p83
S'30027360'
p84
tp85
(lp86
S'30027077'
p87
aS'30027190'
p88
as(S'AleaActaEst'
p89
S'30027367'
p90
tp91
(lp92
S'30029123'
p93
aS'30005534'
p94
aS'30005612'
p95
aS'30005634'
p96
aS'30005747'
p97
aS'30007439'
p98
aS'30007479'
p99
aS'30007500'
p100
aS'30008012'
p101
aS'30008013'
p102
aS'30008015'
p103
aS'30008018'
p104
aS'30008019'
p105
aS'30008020'
p106
aS'30006305'
p107
aS'30006496'
p108
aS'30006609'
p109
aS'30006735'
p110
aS'30031891'
p111
aS'30031889'
p112
aS'30005644'
p113
aS'30005783'
p114
aS'30011564'
p115
aS'30011568'
p116
aS'30011592'
p117
aS'30011714'
p118
aS'30011720'
p119
aS'30011726'
p120
aS'30011729'
p121
aS'30011826'
p122
aS'30011828'
p123
aS'30011830'
p124
aS'30012149'
p125
aS'30012154'
p126
aS'30012157'
p127
aS'30012160'
p128
aS'30036225'
p129
aS'30017044'
p130
aS'30018083'
p131
aS'30025531'
p132
aS'30042811'
p133
aS'30012957'
p134
aS'30006027'
p135
aS'30012616'
p136
aS'30013964'
p137
aS'30028776'
p138
aS'30029955'
p139
aS'30031763'
p140
aS'30008634'
p141
aS'30009876'
p142
aS'30015810'
p143
aS'30013581'
p144
aS'30013583'
p145
aS'30009280'
p146
aS'30009161'
p147
aS'30009166'
p148
aS'30009170'
p149
aS'30009176'
p150
aS'30006640'
p151
aS'30007143'
p152
aS'30007250'
p153
aS'30028769'
p154
aS'30028975'
p155
aS'30030545'
p156
aS'30024591'
p157
aS'30025303'
p158
aS'30041729'
p159
aS'30017518'
p160
aS'30014119'
p161
aS'30006095'
p162
aS'30007113'
p163
aS'30007119'
p164
aS'30007121'
p165
aS'30007122'
p166
aS'30028354'
p167
aS'30031465'
p168
aS'30017171'
p169
aS'30019152'
p170
aS'30010969'
p171
aS'30013165'
p172
aS'30013167'
p173
aS'30013544'
p174
as(S'j3_guile'
p175
S'30026662'
p176
tp177
(lp178
S'30031090'
p179
aS'30032751'
p180
aS'30033315'
p181
aS'30033737'
p182
aS'30033956'
p183
aS'30034282'
p184
aS'30010571'
p185
aS'30027281'
p186
aS'30027283'
p187
aS'30027285'
p188
aS'30027287'
p189
aS'30027289'
p190
aS'30034480'
p191
aS'30034481'
p192
aS'30025697'
p193
aS'30026195'
p194
aS'30023381'
p195
aS'30023382'
p196
aS'30023385'
p197
aS'30024914'
p198
aS'30025148'
p199
aS'30025189'
p200
aS'30025246'
p201
aS'30025247'
p202
aS'30025392'
p203
aS'30006696'
p204
aS'30006744'
p205
aS'30006839'
p206
aS'30018453'
p207
aS'30018454'
p208
aS'30018891'
p209
aS'30019223'
p210
aS'30019232'
p211
aS'30019798'
p212
aS'30020548'
p213
aS'30021424'
p214
aS'30023400'
p215
aS'30024560'
p216
aS'30025198'
p217
aS'30025242'
p218
aS'30025428'
p219
as(S'vangavroche'
p220
S'30026655'
p221
tp222
(lp223
S'30030915'
p224
aS'30031700'
p225
aS'30030914'
p226
aS'30030912'
p227
aS'30016950'
p228
aS'30026153'
p229
aS'30026940'
p230
aS'30029872'
p231
aS'30017758'
p232
aS'30018083'
p233
aS'30012954'
p234
aS'30026290'
p235
aS'30015685'
p236
aS'30028776'
p237
aS'30028781'
p238
aS'30029955'
p239
aS'30031398'
p240
aS'30026405'
p241
aS'30046429'
p242
aS'30024590'
p243
aS'30024591'
p244
aS'30014862'
p245
aS'30017921'
p246
aS'30017924'
p247
aS'30018661'
p248
aS'30019152'
p249
aS'30019386'
p250
aS'30024801'
p251
aS'30024803'
p252
aS'30024823'
p253
aS'30025251'
p254
aS'30025541'
p255
aS'30028853'
p256
aS'30030839'
p257
aS'30039311'
p258
aS'30013165'
p259
as(S'Nabawy'
p260
S'30026053'
p261
tp262
(lp263
s(S'j3_guile'
p264
S'30028307'
p265
tp266
(lp267
S'30031090'
p268
aS'30032751'
p269
aS'30033315'
p270
aS'30033737'
p271
aS'30033956'
p272
aS'30034282'
p273
aS'30010571'
p274
aS'30027281'
p275
aS'30027283'
p276
aS'30027285'
p277
aS'30027287'
p278
aS'30027289'
p279
aS'30034480'
p280
aS'30034481'
p281
aS'30025697'
p282
aS'30026195'
p283
aS'30023381'
p284
aS'30023382'
p285
aS'30023385'
p286
aS'30024914'
p287
aS'30025148'
p288
aS'30025189'
p289
aS'30025246'
p290
aS'30025247'
p291
aS'30025392'
p292
aS'30006696'
p293
aS'30006744'
p294
aS'30006839'
p295
aS'30018453'
p296
aS'30018454'
p297
aS'30018891'
p298
aS'30019223'
p299
aS'30019232'
p300
aS'30019798'
p301
aS'30020548'
p302
aS'30021424'
p303
aS'30023400'
p304
aS'30024560'
p305
aS'30025198'
p306
aS'30025242'
p307
aS'30025428'
p308
as(S'j3_guile'
p309
S'30028993'
p310
tp311
(lp312
S'30031090'
p313
aS'30032751'
p314
aS'30033315'
p315
aS'30033737'
p316
aS'30033956'
p317
aS'30034282'
p318
aS'30010571'
p319
aS'30027281'
p320
aS'30027283'
p321
aS'30027285'
p322
aS'30027287'
p323
aS'30027289'
p324
aS'30034480'
p325
aS'30034481'
p326
aS'30025697'
p327
aS'30026195'
p328
aS'30023381'
p329
aS'30023382'
p330
aS'30023385'
p331
aS'30024914'
p332
aS'30025148'
p333
aS'30025189'
p334
aS'30025246'
p335
aS'30025247'
p336
aS'30025392'
p337
aS'30006696'
p338
aS'30006744'
p339
aS'30006839'
p340
aS'30018453'
p341
aS'30018454'
p342
aS'30018891'
p343
aS'30019223'
p344
aS'30019232'
p345
aS'30019798'
p346
aS'30020548'
p347
aS'30021424'
p348
aS'30023400'
p349
aS'30024560'
p350
aS'30025198'
p351
aS'30025242'
p352
aS'30025428'
p353
as(S'AleaActaEst'
p354
S'30028078'
p355
tp356
(lp357
S'30029123'
p358
aS'30005534'
p359
aS'30005612'
p360
aS'30005634'
p361
aS'30005747'
p362
aS'30007439'
p363
aS'30007479'
p364
aS'30007500'
p365
aS'30008012'
p366
aS'30008013'
p367
aS'30008015'
p368
aS'30008018'
p369
aS'30008019'
p370
aS'30008020'
p371
aS'30006305'
p372
aS'30006496'
p373
aS'30006609'
p374
aS'30006735'
p375
aS'30031891'
p376
aS'30031889'
p377
aS'30005644'
p378
aS'30005783'
p379
aS'30011564'
p380
aS'30011568'
p381
aS'30011592'
p382
aS'30011714'
p383
aS'30011720'
p384
aS'30011726'
p385
aS'30011729'
p386
aS'30011826'
p387
aS'30011828'
p388
aS'30011830'
p389
aS'30012149'
p390
aS'30012154'
p391
aS'30012157'
p392
aS'30012160'
p393
aS'30036225'
p394
aS'30017044'
p395
aS'30018083'
p396
aS'30025531'
p397
aS'30042811'
p398
aS'30012957'
p399
aS'30006027'
p400
aS'30012616'
p401
aS'30013964'
p402
aS'30028776'
p403
aS'30029955'
p404
aS'30031763'
p405
aS'30008634'
p406
aS'30009876'
p407
aS'30015810'
p408
aS'30013581'
p409
aS'30013583'
p410
aS'30009280'
p411
aS'30009161'
p412
aS'30009166'
p413
aS'30009170'
p414
aS'30009176'
p415
aS'30006640'
p416
aS'30007143'
p417
aS'30007250'
p418
aS'30028769'
p419
aS'30028975'
p420
aS'30030545'
p421
aS'30024591'
p422
aS'30025303'
p423
aS'30041729'
p424
aS'30017518'
p425
aS'30014119'
p426
aS'30006095'
p427
aS'30007113'
p428
aS'30007119'
p429
aS'30007121'
p430
aS'30007122'
p431
aS'30028354'
p432
aS'30031465'
p433
aS'30017171'
p434
aS'30019152'
p435
aS'30010969'
p436
aS'30013165'
p437
aS'30013167'
p438
aS'30013544'
p439
as(S'monopoly'
p440
S'30027362'
p441
tp442
(lp443
S'30027077'
p444
aS'30027190'
p445
as(S'j3_guile'
p446
S'30027769'
p447
tp448
(lp449
S'30031090'
p450
aS'30032751'
p451
aS'30033315'
p452
aS'30033737'
p453
aS'30033956'
p454
aS'30034282'
p455
aS'30010571'
p456
aS'30027281'
p457
aS'30027283'
p458
aS'30027285'
p459
aS'30027287'
p460
aS'30027289'
p461
aS'30034480'
p462
aS'30034481'
p463
aS'30025697'
p464
aS'30026195'
p465
aS'30023381'
p466
aS'30023382'
p467
aS'30023385'
p468
aS'30024914'
p469
aS'30025148'
p470
aS'30025189'
p471
aS'30025246'
p472
aS'30025247'
p473
aS'30025392'
p474
aS'30006696'
p475
aS'30006744'
p476
aS'30006839'
p477
aS'30018453'
p478
aS'30018454'
p479
aS'30018891'
p480
aS'30019223'
p481
aS'30019232'
p482
aS'30019798'
p483
aS'30020548'
p484
aS'30021424'
p485
aS'30023400'
p486
aS'30024560'
p487
aS'30025198'
p488
aS'30025242'
p489
aS'30025428'
p490
as(S'iSpartan'
p491
S'30026053'
p492
tp493
(lp494
S'30025941'
p495
aS'30025723'
p496
aS'30028774'
p497
aS'30046424'
p498
aS'30028295'
p499
aS'30026554'
p500
as(S'monopoly'
p501
S'30027997'
p502
tp503
(lp504
S'30027077'
p505
aS'30027190'
p506
as(S'j3_guile'
p507
S'30027997'
p508
tp509
(lp510
S'30031090'
p511
aS'30032751'
p512
aS'30033315'
p513
aS'30033737'
p514
aS'30033956'
p515
aS'30034282'
p516
aS'30010571'
p517
aS'30027281'
p518
aS'30027283'
p519
aS'30027285'
p520
aS'30027287'
p521
aS'30027289'
p522
aS'30034480'
p523
aS'30034481'
p524
aS'30025697'
p525
aS'30026195'
p526
aS'30023381'
p527
aS'30023382'
p528
aS'30023385'
p529
aS'30024914'
p530
aS'30025148'
p531
aS'30025189'
p532
aS'30025246'
p533
aS'30025247'
p534
aS'30025392'
p535
aS'30006696'
p536
aS'30006744'
p537
aS'30006839'
p538
aS'30018453'
p539
aS'30018454'
p540
aS'30018891'
p541
aS'30019223'
p542
aS'30019232'
p543
aS'30019798'
p544
aS'30020548'
p545
aS'30021424'
p546
aS'30023400'
p547
aS'30024560'
p548
aS'30025198'
p549
aS'30025242'
p550
aS'30025428'
p551
as(S'vangavroche'
p552
S'30026657'
p553
tp554
(lp555
S'30030915'
p556
aS'30031700'
p557
aS'30030914'
p558
aS'30030912'
p559
aS'30016950'
p560
aS'30026153'
p561
aS'30026940'
p562
aS'30029872'
p563
aS'30017758'
p564
aS'30018083'
p565
aS'30012954'
p566
aS'30026290'
p567
aS'30015685'
p568
aS'30028776'
p569
aS'30028781'
p570
aS'30029955'
p571
aS'30031398'
p572
aS'30026405'
p573
aS'30046429'
p574
aS'30024590'
p575
aS'30024591'
p576
aS'30014862'
p577
aS'30017921'
p578
aS'30017924'
p579
aS'30018661'
p580
aS'30019152'
p581
aS'30019386'
p582
aS'30024801'
p583
aS'30024803'
p584
aS'30024823'
p585
aS'30025251'
p586
aS'30025541'
p587
aS'30028853'
p588
aS'30030839'
p589
aS'30039311'
p590
aS'30013165'
p591
as(S'kaygee'
p592
S'30028078'
p593
tp594
(lp595
S'30027273'
p596
aS'30027274'
p597
aS'30025651'
p598
aS'30025463'
p599
aS'30025732'
p600
aS'30025995'
p601
aS'30025765'
p602
aS'30025766'
p603
aS'30030512'
p604
as(S'j3_guile'
p605
S'30027360'
p606
tp607
(lp608
S'30031090'
p609
aS'30032751'
p610
aS'30033315'
p611
aS'30033737'
p612
aS'30033956'
p613
aS'30034282'
p614
aS'30010571'
p615
aS'30027281'
p616
aS'30027283'
p617
aS'30027285'
p618
aS'30027287'
p619
aS'30027289'
p620
aS'30034480'
p621
aS'30034481'
p622
aS'30025697'
p623
aS'30026195'
p624
aS'30023381'
p625
aS'30023382'
p626
aS'30023385'
p627
aS'30024914'
p628
aS'30025148'
p629
aS'30025189'
p630
aS'30025246'
p631
aS'30025247'
p632
aS'30025392'
p633
aS'30006696'
p634
aS'30006744'
p635
aS'30006839'
p636
aS'30018453'
p637
aS'30018454'
p638
aS'30018891'
p639
aS'30019223'
p640
aS'30019232'
p641
aS'30019798'
p642
aS'30020548'
p643
aS'30021424'
p644
aS'30023400'
p645
aS'30024560'
p646
aS'30025198'
p647
aS'30025242'
p648
aS'30025428'
p649
as(S'BLE'
p650
S'30026654'
p651
tp652
(lp653
S'30027981'
p654
aS'30025945'
p655
aS'30007214'
p656
aS'30007354'
p657
aS'30007438'
p658
aS'30007831'
p659
aS'30008013'
p660
aS'30008021'
p661
aS'30008036'
p662
aS'30008640'
p663
aS'30027071'
p664
aS'30027871'
p665
aS'30030792'
p666
aS'30030793'
p667
aS'30031082'
p668
aS'30006817'
p669
aS'30006832'
p670
aS'30031891'
p671
aS'30031889'
p672
aS'30031890'
p673
aS'30018459'
p674
aS'30035832'
p675
aS'30018450'
p676
aS'30017273'
p677
aS'30034438'
p678
aS'30012954'
p679
aS'30027411'
p680
aS'30025723'
p681
aS'30027087'
p682
aS'30015683'
p683
aS'30015687'
p684
aS'30028778'
p685
aS'30015490'
p686
aS'30015806'
p687
aS'30015808'
p688
aS'30015812'
p689
aS'30015830'
p690
aS'30015862'
p691
aS'30015989'
p692
aS'30016545'
p693
aS'30027253'
p694
aS'30027255'
p695
aS'30027256'
p696
aS'30040475'
p697
aS'30006965'
p698
aS'30028769'
p699
aS'30018215'
p700
aS'30024760'
p701
aS'30019287'
p702
aS'30013947'
p703
aS'30014862'
p704
aS'30014866'
p705
aS'30014869'
p706
aS'30015715'
p707
aS'30016402'
p708
aS'30014083'
p709
aS'30014119'
p710
aS'30016900'
p711
aS'30017081'
p712
aS'30017393'
p713
aS'30017900'
p714
aS'30017923'
p715
aS'30018106'
p716
aS'30017422'
p717
aS'30023817'
p718
aS'30023839'
p719
aS'30025243'
p720
aS'30025366'
p721
aS'30027301'
p722
aS'30012063'
p723
aS'30013165'
p724
aS'30013169'
p725
aS'30013385'
p726
as(S'j3_guile'
p727
S'30027362'
p728
tp729
(lp730
S'30031090'
p731
aS'30032751'
p732
aS'30033315'
p733
aS'30033737'
p734
aS'30033956'
p735
aS'30034282'
p736
aS'30010571'
p737
aS'30027281'
p738
aS'30027283'
p739
aS'30027285'
p740
aS'30027287'
p741
aS'30027289'
p742
aS'30034480'
p743
aS'30034481'
p744
aS'30025697'
p745
aS'30026195'
p746
aS'30023381'
p747
aS'30023382'
p748
aS'30023385'
p749
aS'30024914'
p750
aS'30025148'
p751
aS'30025189'
p752
aS'30025246'
p753
aS'30025247'
p754
aS'30025392'
p755
aS'30006696'
p756
aS'30006744'
p757
aS'30006839'
p758
aS'30018453'
p759
aS'30018454'
p760
aS'30018891'
p761
aS'30019223'
p762
aS'30019232'
p763
aS'30019798'
p764
aS'30020548'
p765
aS'30021424'
p766
aS'30023400'
p767
aS'30024560'
p768
aS'30025198'
p769
aS'30025242'
p770
aS'30025428'
p771
as(S'mastraho'
p772
S'30028078'
p773
tp774
(lp775
S'30030915'
p776
aS'30031700'
p777
aS'30030914'
p778
aS'30031400'
p779
aS'30033422'
p780
aS'30031428'
p781
aS'30031832'
p782
aS'30007143'
p783
aS'30028295'
p784
aS'30032404'
p785
aS'30016218'
p786
as(S'monopoly'
p787
S'30027769'
p788
tp789
(lp790
S'30027077'
p791
aS'30027190'
p792
as(S'j3_guile'
p793
S'30029384'
p794
tp795
(lp796
S'30031090'
p797
aS'30032751'
p798
aS'30033315'
p799
aS'30033737'
p800
aS'30033956'
p801
aS'30034282'
p802
aS'30010571'
p803
aS'30027281'
p804
aS'30027283'
p805
aS'30027285'
p806
aS'30027287'
p807
aS'30027289'
p808
aS'30034480'
p809
aS'30034481'
p810
aS'30025697'
p811
aS'30026195'
p812
aS'30023381'
p813
aS'30023382'
p814
aS'30023385'
p815
aS'30024914'
p816
aS'30025148'
p817
aS'30025189'
p818
aS'30025246'
p819
aS'30025247'
p820
aS'30025392'
p821
aS'30006696'
p822
aS'30006744'
p823
aS'30006839'
p824
aS'30018453'
p825
aS'30018454'
p826
aS'30018891'
p827
aS'30019223'
p828
aS'30019232'
p829
aS'30019798'
p830
aS'30020548'
p831
aS'30021424'
p832
aS'30023400'
p833
aS'30024560'
p834
aS'30025198'
p835
aS'30025242'
p836
aS'30025428'
p837
as(S'ben.lv'
p838
S'30027367'
p839
tp840
(lp841
S'30007125'
p842
aS'30009247'
p843
aS'30009479'
p844
aS'30009490'
p845
aS'30029877'
p846
as.