(dp0
(S'Sky_'
p1
S'30033849'
p2
tp3
(lp4
S'30047404'
p5
aS'30049437'
p6
aS'30049493'
p7
aS'30049527'
p8
aS'30050224'
p9
aS'30050632'
p10
aS'30051305'
p11
as(S'Sky_'
p12
S'30043217'
p13
tp14
(lp15
S'30047404'
p16
aS'30049437'
p17
aS'30049493'
p18
aS'30049527'
p19
aS'30050224'
p20
aS'30050632'
p21
aS'30051305'
p22
as(S'Colinh84'
p23
S'30041357'
p24
tp25
(lp26
s(S'Sky_'
p27
S'30046767'
p28
tp29
(lp30
S'30047404'
p31
aS'30049437'
p32
aS'30049493'
p33
aS'30049527'
p34
aS'30050224'
p35
aS'30050632'
p36
aS'30051305'
p37
as(S'Minwei_ji'
p38
S'30031639'
p39
tp40
(lp41
s(S'fivestarwy'
p42
S'30031624'
p43
tp44
(lp45
S'30028992'
p46
aS'30007124'
p47
aS'30007362'
p48
aS'30007473'
p49
aS'30007694'
p50
aS'30006330'
p51
aS'30008663'
p52
aS'30009300'
p53
aS'30027416'
p54
aS'30027701'
p55
aS'30029682'
p56
aS'30015701'
p57
aS'30030345'
p58
aS'30007407'
p59
aS'30028978'
p60
aS'30046429'
p61
aS'30023498'
p62
aS'30039533'
p63
aS'30006487'
p64
aS'30030029'
p65
as(S'seeef'
p66
S'30031639'
p67
tp68
(lp69
S'30030916'
p70
aS'30030919'
p71
aS'30030918'
p72
aS'30031580'
p73
aS'30031683'
p74
aS'30031945'
p75
aS'30032028'
p76
aS'30032160'
p77
aS'30032379'
p78
aS'30033970'
p79
aS'30039058'
p80
aS'30038791'
p81
as(S'yepx'
p82
S'30033246'
p83
tp84
(lp85
s(S'Sky_'
p86
S'30041781'
p87
tp88
(lp89
S'30047404'
p90
aS'30049437'
p91
aS'30049493'
p92
aS'30049527'
p93
aS'30050224'
p94
aS'30050632'
p95
aS'30051305'
p96
as(S'Mirikle'
p97
S'30034371'
p98
tp99
(lp100
s(S'Sky_'
p101
S'30041486'
p102
tp103
(lp104
S'30047404'
p105
aS'30049437'
p106
aS'30049493'
p107
aS'30049527'
p108
aS'30050224'
p109
aS'30050632'
p110
aS'30051305'
p111
as(S'winterflame'
p112
S'30043098'
p113
tp114
(lp115
S'30027981'
p116
aS'30025945'
p117
aS'30008236'
p118
aS'30027871'
p119
aS'30030792'
p120
aS'30006832'
p121
aS'30049610'
p122
aS'30049821'
p123
aS'30050327'
p124
aS'30050581'
p125
aS'30027447'
p126
aS'30035832'
p127
aS'30028937'
p128
aS'30029408'
p129
aS'30043390'
p130
aS'30017044'
p131
aS'30017273'
p132
aS'30034438'
p133
aS'30027411'
p134
aS'30027087'
p135
aS'30028778'
p136
aS'30015170'
p137
aS'30015989'
p138
aS'30027253'
p139
aS'30040475'
p140
aS'30013269'
p141
aS'30012869'
p142
aS'30028977'
p143
aS'30019363'
p144
aS'30023802'
p145
aS'30041737'
p146
aS'30018890'
p147
aS'30024822'
p148
aS'30013947'
p149
aS'30015715'
p150
aS'30007280'
p151
aS'30006306'
p152
aS'30006487'
p153
aS'30017571'
p154
aS'30017676'
p155
aS'30017862'
p156
aS'30027301'
p157
aS'30029877'
p158
aS'30011225'
p159
aS'30012063'
p160
aS'30012064'
p161
as(S'akinwale'
p162
S'30029868'
p163
tp164
(lp165
S'30031533'
p166
aS'30013545'
p167
as(S'lintc'
p168
S'30033672'
p169
tp170
(lp171
S'30033561'
p172
aS'30035184'
p173
aS'30032490'
p174
as(S'xjtufreeman'
p175
S'30034371'
p176
tp177
(lp178
S'30019523'
p179
aS'30023564'
p180
aS'30025136'
p181
as(S'sky_cn'
p182
S'30032598'
p183
tp184
(lp185
S'30013685'
p186
aS'30025289'
p187
aS'30032490'
p188
as(S'Brightspring'
p189
S'30043098'
p190
tp191
(lp192
S'30050163'
p193
aS'30043390'
p194
aS'30040475'
p195
aS'30041737'
p196
as(S'ksladkov'
p197
S'30033672'
p198
tp199
(lp200
S'30035872'
p201
aS'30033561'
p202
aS'30035185'
p203
aS'30048454'
p204
as(S'velorien'
p205
S'30031624'
p206
tp207
(lp208
S'30006853'
p209
aS'30006107'
p210
aS'30026346'
p211
aS'30006243'
p212
aS'30006455'
p213
aS'30006630'
p214
aS'30007116'
p215
aS'30008173'
p216
aS'30008444'
p217
aS'30008484'
p218
aS'30006312'
p219
as(S'YeGGo'
p220
S'30029868'
p221
tp222
(lp223
S'30027988'
p224
aS'30027992'
p225
aS'30029244'
p226
aS'30007561'
p227
aS'30007694'
p228
aS'30007861'
p229
aS'30006794'
p230
aS'30007197'
p231
aS'30007217'
p232
aS'30007218'
p233
aS'30007406'
p234
aS'30008351'
p235
aS'30008683'
p236
as(S'jimrandomh'
p237
S'30029866'
p238
tp239
(lp240
s(S'akinwale'
p241
S'30029866'
p242
tp243
(lp244
S'30031533'
p245
aS'30013545'
p246
as(S'seeef'
p247
S'30032166'
p248
tp249
(lp250
S'30030916'
p251
aS'30030919'
p252
aS'30030918'
p253
aS'30031580'
p254
aS'30031683'
p255
aS'30031945'
p256
aS'30032028'
p257
aS'30032160'
p258
aS'30032379'
p259
aS'30033970'
p260
aS'30039058'
p261
aS'30038791'
p262
as(S'morehappiness'
p263
S'30034371'
p264
tp265
(lp266
S'30007362'
p267
aS'30005787'
p268
aS'30006038'
p269
aS'30031945'
p270
aS'30031946'
p271
aS'30031978'
p272
aS'30032028'
p273
aS'30032160'
p274
aS'30032379'
p275
aS'30033821'
p276
aS'30033964'
p277
aS'30033968'
p278
aS'30033970'
p279
aS'30014499'
p280
aS'30014502'
p281
aS'30014014'
p282
aS'30006107'
p283
aS'30027287'
p284
aS'30042127'
p285
aS'30033278'
p286
aS'30034065'
p287
aS'30034244'
p288
aS'30030964'
p289
aS'30031434'
p290
aS'30039535'
p291
aS'30014863'
p292
aS'30018453'
p293
aS'30018891'
p294
aS'30023566'
p295
aS'30023645'
p296
aS'30024010'
p297
aS'30024011'
p298
aS'30024030'
p299
aS'30024209'
p300
aS'30025113'
p301
aS'30025248'
p302
aS'30025855'
p303
aS'30025862'
p304
as(S'soso0574'
p305
S'30041357'
p306
tp307
(lp308
S'30007311'
p309
aS'30011342'
p310
aS'30029098'
p311
aS'30032029'
p312
aS'30018566'
p313
aS'30022361'
p314
aS'30012674'
p315
aS'30019025'
p316
aS'30007171'
p317
aS'30025289'
p318
aS'30019357'
p319
aS'30025322'
p320
aS'30031258'
p321
aS'30007410'
p322
aS'30007411'
p323
aS'30007424'
p324
aS'30007425'
p325
aS'30017173'
p326
aS'30018499'
p327
aS'30017775'
p328
aS'30012067'
p329
as(S'Minwei_ji'
p330
S'30031624'
p331
tp332
(lp333
s(S'cookiesfifa'
p334
S'30033672'
p335
tp336
(lp337
s(S'Sky_'
p338
S'30042740'
p339
tp340
(lp341
S'30047404'
p342
aS'30049437'
p343
aS'30049493'
p344
aS'30049527'
p345
aS'30050224'
p346
aS'30050632'
p347
aS'30051305'
p348
as(S'xjtufreeman'
p349
S'30034063'
p350
tp351
(lp352
S'30019523'
p353
aS'30023564'
p354
aS'30025136'
p355
as(S'sin_hu'
p356
S'30032598'
p357
tp358
(lp359
S'30025943'
p360
aS'30028586'
p361
aS'30036099'
p362
aS'30029098'
p363
aS'30033645'
p364
aS'30033372'
p365
aS'30035184'
p366
aS'30027254'
p367
aS'30028979'
p368
aS'30048395'
p369
aS'30025322'
p370
aS'30029880'
p371
as(S'moonli'
p372
S'30029912'
p373
tp374
(lp375
S'30028023'
p376
aS'30005635'
p377
aS'30008019'
p378
aS'30008020'
p379
aS'30008093'
p380
aS'30008161'
p381
aS'30008270'
p382
aS'30024969'
p383
aS'30024359'
p384
aS'30025259'
p385
aS'30025531'
p386
aS'30025533'
p387
aS'30026057'
p388
aS'30026094'
p389
aS'30026096'
p390
aS'30026098'
p391
aS'30026505'
p392
aS'30026507'
p393
aS'30026509'
p394
aS'30015814'
p395
aS'30007408'
p396
aS'30007420'
p397
aS'30024050'
p398
aS'30024217'
p399
aS'30024549'
p400
aS'30014093'
p401
aS'30014908'
p402
aS'30014912'
p403
aS'30007285'
p404
aS'30007289'
p405
aS'30008150'
p406
aS'30008319'
p407
aS'30008350'
p408
as(S'gevak'
p409
S'30029583'
p410
tp411
(lp412
S'30028590'
p413
aS'30006991'
p414
aS'30005747'
p415
aS'30031530'
p416
aS'30032182'
p417
aS'30025478'
p418
aS'30023740'
p419
aS'30014030'
p420
aS'30014331'
p421
aS'30014535'
p422
aS'30014599'
p423
aS'30014603'
p424
aS'30014605'
p425
aS'30014022'
p426
aS'30014610'
p427
aS'30006012'
p428
aS'30027412'
p429
aS'30015685'
p430
aS'30027257'
p431
aS'30031457'
p432
aS'30019373'
p433
aS'30024474'
p434
aS'30024476'
p435
aS'30025335'
p436
aS'30014908'
p437
aS'30017929'
p438
as(S'Sky_'
p439
S'30042957'
p440
tp441
(lp442
S'30047404'
p443
aS'30049437'
p444
aS'30049493'
p445
aS'30049527'
p446
aS'30050224'
p447
aS'30050632'
p448
aS'30051305'
p449
as(S'jcthomasj'
p450
S'30032598'
p451
tp452
(lp453
S'30033561'
p454
as(S'faeton'
p455
S'30029911'
p456
tp457
(lp458
S'30008020'
p459
aS'30026893'
p460
aS'30035805'
p461
aS'30045653'
p462
aS'30008662'
p463
aS'30027712'
p464
aS'30027714'
p465
aS'30027716'
p466
aS'30008630'
p467
aS'30008632'
p468
aS'30008634'
p469
aS'30035149'
p470
aS'30030344'
p471
aS'30031056'
p472
aS'30028298'
p473
aS'30006297'
p474
aS'30008319'
p475
aS'30008350'
p476
aS'30018158'
p477
as(S'ctrl2'
p478
S'30032598'
p479
tp480
(lp481
S'30033432'
p482
aS'30033434'
p483
aS'30033890'
p484
aS'30033859'
p485
aS'30034480'
p486
aS'30032490'
p487
as.