(dp0
(S'saevio'
p1
S'30005913'
p2
tp3
(lp4
S'30006698'
p5
aS'30006735'
p6
aS'30006363'
p7
as(S'utlovey'
p8
S'30006422'
p9
tp10
(lp11
S'30005653'
p12
aS'30005654'
p13
aS'30005713'
p14
aS'30005772'
p15
aS'30005798'
p16
aS'30005814'
p17
aS'30017239'
p18
aS'30017909'
p19
aS'30012955'
p20
aS'30013941'
p21
aS'30013584'
p22
aS'30006568'
p23
aS'30018003'
p24
aS'30013166'
p25
aS'30013386'
p26
as(S'will.xie'
p27
S'30009495'
p28
tp29
(lp30
S'30006813'
p31
aS'30007062'
p32
as(S'argolite'
p33
S'30008660'
p34
tp35
(lp36
S'30027739'
p37
aS'30029618'
p38
aS'30006792'
p39
aS'30005518'
p40
aS'30007354'
p41
aS'30007438'
p42
aS'30008127'
p43
aS'30027518'
p44
aS'30031528'
p45
aS'30031534'
p46
aS'30031536'
p47
aS'30031600'
p48
aS'30032020'
p49
aS'30032022'
p50
aS'30032180'
p51
aS'30032184'
p52
aS'30032243'
p53
aS'30006496'
p54
aS'30006851'
p55
aS'30006810'
p56
aS'30006811'
p57
aS'30049390'
p58
aS'30049815'
p59
aS'30005644'
p60
aS'30005929'
p61
aS'30011185'
p62
aS'30011564'
p63
aS'30011568'
p64
aS'30011579'
p65
aS'30011592'
p66
aS'30011612'
p67
aS'30011615'
p68
aS'30011714'
p69
aS'30011720'
p70
aS'30011726'
p71
aS'30011729'
p72
aS'30011826'
p73
aS'30011828'
p74
aS'30011830'
p75
aS'30012149'
p76
aS'30012151'
p77
aS'30012154'
p78
aS'30012157'
p79
aS'30012160'
p80
aS'30033428'
p81
aS'30034496'
p82
aS'30018462'
p83
aS'30018463'
p84
aS'30025476'
p85
aS'30025478'
p86
aS'30026925'
p87
aS'30026927'
p88
aS'30026940'
p89
aS'30027297'
p90
aS'30035183'
p91
aS'30036225'
p92
aS'30025257'
p93
aS'30025259'
p94
aS'30025509'
p95
aS'30025531'
p96
aS'30026505'
p97
aS'30026507'
p98
aS'30034439'
p99
aS'30042811'
p100
aS'30043014'
p101
aS'30012954'
p102
aS'30014031'
p103
aS'30014331'
p104
aS'30014498'
p105
aS'30014504'
p106
aS'30014535'
p107
aS'30014596'
p108
aS'30014599'
p109
aS'30012957'
p110
aS'30014013'
p111
aS'30014576'
p112
aS'30026290'
p113
aS'30027696'
p114
aS'30013964'
p115
aS'30031767'
p116
aS'30008629'
p117
aS'30009874'
p118
aS'30033371'
p119
aS'30035695'
p120
aS'30015830'
p121
aS'30016446'
p122
aS'30016545'
p123
aS'30030344'
p124
aS'30030348'
p125
aS'30030905'
p126
aS'30031056'
p127
aS'30031303'
p128
aS'30026405'
p129
aS'30027261'
p130
aS'30027265'
p131
aS'30027269'
p132
aS'30027271'
p133
aS'30031139'
p134
aS'30031141'
p135
aS'30009280'
p136
aS'30009533'
p137
aS'30009538'
p138
aS'30009813'
p139
aS'30007250'
p140
aS'30007310'
p141
aS'30007314'
p142
aS'30007330'
p143
aS'30007408'
p144
aS'30007419'
p145
aS'30028980'
p146
aS'30028981'
p147
aS'30025002'
p148
aS'30019359'
p149
aS'30023203'
p150
aS'30025337'
p151
aS'30021882'
p152
aS'30019816'
p153
aS'30019817'
p154
aS'30014859'
p155
aS'30014119'
p156
aS'30006333'
p157
aS'30006264'
p158
aS'30006220'
p159
aS'30006363'
p160
aS'30006508'
p161
aS'30028361'
p162
aS'30031461'
p163
aS'30017081'
p164
aS'30017573'
p165
aS'30017575'
p166
aS'30017678'
p167
aS'30017702'
p168
aS'30017000'
p169
aS'30023773'
p170
aS'30023833'
p171
aS'30024419'
p172
aS'30025243'
p173
aS'30025636'
p174
aS'30027163'
p175
aS'30027305'
p176
aS'30027306'
p177
aS'30029974'
p178
aS'30029884'
p179
aS'30012062'
p180
as(S'wanxqc'
p181
S'30009490'
p182
tp183
(lp184
S'30008078'
p185
aS'30008079'
p186
aS'30008325'
p187
aS'30024967'
p188
aS'30014602'
p189
aS'30008888'
p190
aS'30007422'
p191
aS'30031990'
p192
as(S'Hacker_QC'
p193
S'30006212'
p194
tp195
(lp196
S'30005723'
p197
aS'30006025'
p198
aS'30006038'
p199
as(S'Pops'
p200
S'30006026'
p201
tp202
(lp203
s(S'the_dark_poet'
p204
S'30008709'
p205
tp206
(lp207
s(S'AleaActaEst'
p208
S'30006027'
p209
tp210
(lp211
S'30029123'
p212
aS'30005534'
p213
aS'30005612'
p214
aS'30005634'
p215
aS'30005747'
p216
aS'30007439'
p217
aS'30007479'
p218
aS'30007500'
p219
aS'30008012'
p220
aS'30008013'
p221
aS'30008015'
p222
aS'30008018'
p223
aS'30008019'
p224
aS'30008020'
p225
aS'30006305'
p226
aS'30006496'
p227
aS'30006609'
p228
aS'30006735'
p229
aS'30031891'
p230
aS'30031889'
p231
aS'30005644'
p232
aS'30005783'
p233
aS'30011564'
p234
aS'30011568'
p235
aS'30011592'
p236
aS'30011714'
p237
aS'30011720'
p238
aS'30011726'
p239
aS'30011729'
p240
aS'30011826'
p241
aS'30011828'
p242
aS'30011830'
p243
aS'30012149'
p244
aS'30012154'
p245
aS'30012157'
p246
aS'30012160'
p247
aS'30036225'
p248
aS'30017044'
p249
aS'30027367'
p250
aS'30028078'
p251
aS'30018083'
p252
aS'30025531'
p253
aS'30042811'
p254
aS'30012957'
p255
aS'30012616'
p256
aS'30013964'
p257
aS'30028776'
p258
aS'30029955'
p259
aS'30031763'
p260
aS'30008634'
p261
aS'30009876'
p262
aS'30015810'
p263
aS'30013581'
p264
aS'30013583'
p265
aS'30009280'
p266
aS'30009161'
p267
aS'30009166'
p268
aS'30009170'
p269
aS'30009176'
p270
aS'30006640'
p271
aS'30007143'
p272
aS'30007250'
p273
aS'30028769'
p274
aS'30028975'
p275
aS'30030545'
p276
aS'30024591'
p277
aS'30025303'
p278
aS'30041729'
p279
aS'30017518'
p280
aS'30014119'
p281
aS'30006095'
p282
aS'30007113'
p283
aS'30007119'
p284
aS'30007121'
p285
aS'30007122'
p286
aS'30028354'
p287
aS'30031465'
p288
aS'30017171'
p289
aS'30019152'
p290
aS'30010969'
p291
aS'30013165'
p292
aS'30013167'
p293
aS'30013544'
p294
as(S'utlovey'
p295
S'30006499'
p296
tp297
(lp298
S'30005653'
p299
aS'30005654'
p300
aS'30005713'
p301
aS'30005772'
p302
aS'30005798'
p303
aS'30005814'
p304
aS'30017239'
p305
aS'30017909'
p306
aS'30012955'
p307
aS'30013941'
p308
aS'30013584'
p309
aS'30006568'
p310
aS'30018003'
p311
aS'30013166'
p312
aS'30013386'
p313
as(S'Lunarmony'
p314
S'30009301'
p315
tp316
(lp317
S'30006909'
p318
as(S'zsudraco'
p319
S'30005823'
p320
tp321
(lp322
S'30006903'
p323
aS'30005518'
p324
aS'30005612'
p325
aS'30005614'
p326
aS'30005747'
p327
aS'30007471'
p328
aS'30031526'
p329
aS'30031532'
p330
aS'30049390'
p331
aS'30049815'
p332
aS'30050164'
p333
aS'30018463'
p334
aS'30024966'
p335
aS'30023208'
p336
aS'30026094'
p337
aS'30026096'
p338
aS'30026098'
p339
aS'30027695'
p340
aS'30027696'
p341
aS'30034665'
p342
aS'30035148'
p343
aS'30035149'
p344
aS'30027259'
p345
aS'30027261'
p346
aS'30027267'
p347
aS'30013581'
p348
aS'30028980'
p349
aS'30031457'
p350
aS'30046430'
p351
aS'30019359'
p352
aS'30024590'
p353
aS'30025301'
p354
aS'30028298'
p355
aS'30023839'
p356
aS'30027302'
p357
aS'30027306'
p358
aS'30029881'
p359
as(S'cartooncat'
p360
S'30006075'
p361
tp362
(lp363
S'30006175'
p364
as(S'flytoj2ee'
p365
S'30008890'
p366
tp367
(lp368
S'30005610'
p369
aS'30005631'
p370
aS'30005743'
p371
aS'30050045'
p372
aS'30014607'
p373
aS'30014599'
p374
aS'30027720'
p375
aS'30027726'
p376
aS'30027728'
p377
aS'30031574'
p378
aS'30031576'
p379
aS'30031943'
p380
aS'30034065'
p381
aS'30049606'
p382
aS'30049629'
p383
aS'30049724'
p384
aS'30050359'
p385
aS'30023498'
p386
aS'30018621'
p387
aS'30014869'
p388
aS'30007121'
p389
aS'30025650'
p390
aS'30031721'
p391
as(S'assistant'
p392
S'30006121'
p393
tp394
(lp395
S'30005932'
p396
aS'30006024'
p397
as(S'saarixx'
p398
S'30006011'
p399
tp400
(lp401
S'30006991'
p402
aS'30006992'
p403
aS'30007439'
p404
aS'30007471'
p405
aS'30007479'
p406
aS'30007500'
p407
aS'30005929'
p408
aS'30005930'
p409
aS'30025474'
p410
aS'30025476'
p411
aS'30018662'
p412
aS'30023703'
p413
aS'30014031'
p414
aS'30014013'
p415
aS'30015683'
p416
aS'30015687'
p417
aS'30015862'
p418
aS'30015864'
p419
aS'30016541'
p420
aS'30016543'
p421
aS'30016545'
p422
aS'30019365'
p423
aS'30019367'
p424
aS'30019371'
p425
aS'30019379'
p426
aS'30019381'
p427
aS'30025110'
p428
aS'30025303'
p429
aS'30025337'
p430
aS'30023220'
p431
aS'30024046'
p432
aS'30024054'
p433
aS'30024056'
p434
aS'30024654'
p435
aS'30006267'
p436
aS'30006457'
p437
aS'30006458'
p438
aS'30006459'
p439
aS'30007126'
p440
aS'30007127'
p441
aS'30006508'
p442
aS'30006509'
p443
aS'30017571'
p444
aS'30017573'
p445
aS'30017575'
p446
aS'30017577'
p447
aS'30017678'
p448
aS'30017700'
p449
aS'30017702'
p450
aS'30017704'
p451
aS'30018154'
p452
aS'30018156'
p453
aS'30018158'
p454
aS'30018160'
p455
aS'30018162'
p456
aS'30018164'
p457
aS'30018166'
p458
aS'30018271'
p459
aS'30018273'
p460
aS'30018275'
p461
aS'30018277'
p462
aS'30018279'
p463
aS'30013167'
p464
aS'30013169'
p465
as(S'netsafe'
p466
S'30006212'
p467
tp468
(lp469
S'30006025'
p470
as(S'myxgyy'
p471
S'30006212'
p472
tp473
(lp474
S'30005787'
p475
aS'30006025'
p476
aS'30006038'
p477
aS'30006531'
p478
aS'30006569'
p479
as(S'hyckitty'
p480
S'30009300'
p481
tp482
(lp483
s(S'bramandia'
p484
S'30008740'
p485
tp486
(lp487
S'30008017'
p488
aS'30008161'
p489
aS'30014912'
p490
aS'30007112'
p491
aS'30007276'
p492
as(S'myxgyy'
p493
S'30006108'
p494
tp495
(lp496
S'30005787'
p497
aS'30006025'
p498
aS'30006038'
p499
aS'30006531'
p500
aS'30006569'
p501
as(S'gevak'
p502
S'30006012'
p503
tp504
(lp505
S'30028590'
p506
aS'30006991'
p507
aS'30005747'
p508
aS'30031530'
p509
aS'30032182'
p510
aS'30025478'
p511
aS'30029583'
p512
aS'30023740'
p513
aS'30014030'
p514
aS'30014331'
p515
aS'30014535'
p516
aS'30014599'
p517
aS'30014603'
p518
aS'30014605'
p519
aS'30014022'
p520
aS'30014610'
p521
aS'30027412'
p522
aS'30015685'
p523
aS'30027257'
p524
aS'30031457'
p525
aS'30019373'
p526
aS'30024474'
p527
aS'30024476'
p528
aS'30025335'
p529
aS'30014908'
p530
aS'30017929'
p531
as(S'boyina'
p532
S'30009479'
p533
tp534
(lp535
s(S'assistant'
p536
S'30006114'
p537
tp538
(lp539
S'30005932'
p540
aS'30006024'
p541
as(S'Indemar'
p542
S'30006026'
p543
tp544
(lp545
S'30025941'
p546
aS'30031400'
p547
aS'30034539'
p548
aS'30017518'
p549
aS'30017962'
p550
aS'30028354'
p551
aS'30017422'
p552
as(S'fivestarwy'
p553
S'30006330'
p554
tp555
(lp556
S'30028992'
p557
aS'30007124'
p558
aS'30007362'
p559
aS'30007473'
p560
aS'30007694'
p561
aS'30031624'
p562
aS'30027416'
p563
aS'30027701'
p564
aS'30029682'
p565
aS'30015701'
p566
aS'30030345'
p567
aS'30007407'
p568
aS'30028978'
p569
aS'30046429'
p570
aS'30023498'
p571
aS'30039533'
p572
aS'30006487'
p573
aS'30030029'
p574
as(S'star4evar'
p575
S'30008663'
p576
tp577
(lp578
s(S'newstar'
p579
S'30009479'
p580
tp581
(lp582
S'30015688'
p583
aS'30013387'
p584
as(S'elf788544'
p585
S'30006133'
p586
tp587
(lp588
S'30006312'
p589
as(S'kangkangakak'
p590
S'30006330'
p591
tp592
(lp593
S'30006485'
p594
aS'30006455'
p595
as(S'fivestarwy'
p596
S'30008663'
p597
tp598
(lp599
S'30028992'
p600
aS'30007124'
p601
aS'30007362'
p602
aS'30007473'
p603
aS'30007694'
p604
aS'30031624'
p605
aS'30027416'
p606
aS'30027701'
p607
aS'30029682'
p608
aS'30015701'
p609
aS'30030345'
p610
aS'30007407'
p611
aS'30028978'
p612
aS'30046429'
p613
aS'30023498'
p614
aS'30039533'
p615
aS'30006487'
p616
aS'30030029'
p617
as(S'faeton'
p618
S'30008662'
p619
tp620
(lp621
S'30008020'
p622
aS'30026893'
p623
aS'30029911'
p624
aS'30035805'
p625
aS'30045653'
p626
aS'30027712'
p627
aS'30027714'
p628
aS'30027716'
p629
aS'30008630'
p630
aS'30008632'
p631
aS'30008634'
p632
aS'30035149'
p633
aS'30030344'
p634
aS'30031056'
p635
aS'30028298'
p636
aS'30006297'
p637
aS'30008319'
p638
aS'30008350'
p639
aS'30018158'
p640
as(S'iRabbit'
p641
S'30007134'
p642
tp643
(lp644
S'30007133'
p645
aS'30006980'
p646
aS'30013724'
p647
as(S'utlovey'
p648
S'30006423'
p649
tp650
(lp651
S'30005653'
p652
aS'30005654'
p653
aS'30005713'
p654
aS'30005772'
p655
aS'30005798'
p656
aS'30005814'
p657
aS'30017239'
p658
aS'30017909'
p659
aS'30012955'
p660
aS'30013941'
p661
aS'30013584'
p662
aS'30006568'
p663
aS'30018003'
p664
aS'30013166'
p665
aS'30013386'
p666
as(S'Standlove'
p667
S'30006026'
p668
tp669
(lp670
S'30017758'
p671
aS'30018051'
p672
aS'30034664'
p673
aS'30034665'
p674
aS'30034947'
p675
aS'30034948'
p676
aS'30015490'
p677
aS'30015830'
p678
aS'30039122'
p679
aS'30009692'
p680
aS'30009698'
p681
aS'30011321'
p682
aS'30009535'
p683
aS'30009537'
p684
aS'30009538'
p685
aS'30009684'
p686
aS'30009153'
p687
aS'30009157'
p688
aS'30009159'
p689
aS'30009166'
p690
aS'30009168'
p691
aS'30009170'
p692
aS'30009172'
p693
aS'30009174'
p694
aS'30009178'
p695
aS'30007330'
p696
aS'30006094'
p697
aS'30007632'
p698
aS'30007692'
p699
aS'30007815'
p700
aS'30017393'
p701
aS'30017951'
p702
aS'30018270'
p703
aS'30018282'
p704
aS'30024651'
p705
aS'30025650'
p706
aS'30026052'
p707
aS'30010969'
p708
aS'30011480'
p709
as(S'HumbleSunflower'
p710
S'30006600'
p711
tp712
(lp713
S'30007437'
p714
aS'30007145'
p715
aS'30006024'
p716
aS'30014332'
p717
aS'30014502'
p718
aS'30014023'
p719
aS'30008633'
p720
aS'30008635'
p721
aS'30008888'
p722
aS'30007404'
p723
aS'30007426'
p724
aS'30007427'
p725
aS'30007470'
p726
aS'30007480'
p727
aS'30014867'
p728
aS'30016064'
p729
as(S'argolite'
p730
S'30006028'
p731
tp732
(lp733
S'30027739'
p734
aS'30029618'
p735
aS'30006792'
p736
aS'30005518'
p737
aS'30007354'
p738
aS'30007438'
p739
aS'30008127'
p740
aS'30027518'
p741
aS'30031528'
p742
aS'30031534'
p743
aS'30031536'
p744
aS'30031600'
p745
aS'30032020'
p746
aS'30032022'
p747
aS'30032180'
p748
aS'30032184'
p749
aS'30032243'
p750
aS'30006496'
p751
aS'30006851'
p752
aS'30006810'
p753
aS'30006811'
p754
aS'30049390'
p755
aS'30049815'
p756
aS'30005644'
p757
aS'30005929'
p758
aS'30011185'
p759
aS'30011564'
p760
aS'30011568'
p761
aS'30011579'
p762
aS'30011592'
p763
aS'30011612'
p764
aS'30011615'
p765
aS'30011714'
p766
aS'30011720'
p767
aS'30011726'
p768
aS'30011729'
p769
aS'30011826'
p770
aS'30011828'
p771
aS'30011830'
p772
aS'30012149'
p773
aS'30012151'
p774
aS'30012154'
p775
aS'30012157'
p776
aS'30012160'
p777
aS'30033428'
p778
aS'30034496'
p779
aS'30018462'
p780
aS'30018463'
p781
aS'30025476'
p782
aS'30025478'
p783
aS'30026925'
p784
aS'30026927'
p785
aS'30026940'
p786
aS'30027297'
p787
aS'30035183'
p788
aS'30036225'
p789
aS'30025257'
p790
aS'30025259'
p791
aS'30025509'
p792
aS'30025531'
p793
aS'30026505'
p794
aS'30026507'
p795
aS'30034439'
p796
aS'30042811'
p797
aS'30043014'
p798
aS'30012954'
p799
aS'30014031'
p800
aS'30014331'
p801
aS'30014498'
p802
aS'30014504'
p803
aS'30014535'
p804
aS'30014596'
p805
aS'30014599'
p806
aS'30012957'
p807
aS'30014013'
p808
aS'30014576'
p809
aS'30026290'
p810
aS'30027696'
p811
aS'30013964'
p812
aS'30031767'
p813
aS'30008629'
p814
aS'30009874'
p815
aS'30033371'
p816
aS'30035695'
p817
aS'30015830'
p818
aS'30016446'
p819
aS'30016545'
p820
aS'30030344'
p821
aS'30030348'
p822
aS'30030905'
p823
aS'30031056'
p824
aS'30031303'
p825
aS'30026405'
p826
aS'30027261'
p827
aS'30027265'
p828
aS'30027269'
p829
aS'30027271'
p830
aS'30031139'
p831
aS'30031141'
p832
aS'30009280'
p833
aS'30009533'
p834
aS'30009538'
p835
aS'30009813'
p836
aS'30007250'
p837
aS'30007310'
p838
aS'30007314'
p839
aS'30007330'
p840
aS'30007408'
p841
aS'30007419'
p842
aS'30028980'
p843
aS'30028981'
p844
aS'30025002'
p845
aS'30019359'
p846
aS'30023203'
p847
aS'30025337'
p848
aS'30021882'
p849
aS'30019816'
p850
aS'30019817'
p851
aS'30014859'
p852
aS'30014119'
p853
aS'30006333'
p854
aS'30006264'
p855
aS'30006220'
p856
aS'30006363'
p857
aS'30006508'
p858
aS'30028361'
p859
aS'30031461'
p860
aS'30017081'
p861
aS'30017573'
p862
aS'30017575'
p863
aS'30017678'
p864
aS'30017702'
p865
aS'30017000'
p866
aS'30023773'
p867
aS'30023833'
p868
aS'30024419'
p869
aS'30025243'
p870
aS'30025636'
p871
aS'30027163'
p872
aS'30027305'
p873
aS'30027306'
p874
aS'30029974'
p875
aS'30029884'
p876
aS'30012062'
p877
as(S'Standlove'
p878
S'30005914'
p879
tp880
(lp881
S'30017758'
p882
aS'30018051'
p883
aS'30034664'
p884
aS'30034665'
p885
aS'30034947'
p886
aS'30034948'
p887
aS'30015490'
p888
aS'30015830'
p889
aS'30039122'
p890
aS'30009692'
p891
aS'30009698'
p892
aS'30011321'
p893
aS'30009535'
p894
aS'30009537'
p895
aS'30009538'
p896
aS'30009684'
p897
aS'30009153'
p898
aS'30009157'
p899
aS'30009159'
p900
aS'30009166'
p901
aS'30009168'
p902
aS'30009170'
p903
aS'30009172'
p904
aS'30009174'
p905
aS'30009178'
p906
aS'30007330'
p907
aS'30006094'
p908
aS'30007632'
p909
aS'30007692'
p910
aS'30007815'
p911
aS'30017393'
p912
aS'30017951'
p913
aS'30018270'
p914
aS'30018282'
p915
aS'30024651'
p916
aS'30025650'
p917
aS'30026052'
p918
aS'30010969'
p919
aS'30011480'
p920
as(S'hefeng'
p921
S'30006107'
p922
tp923
(lp924
S'30005907'
p925
as(S'myxgyy'
p926
S'30006330'
p927
tp928
(lp929
S'30005787'
p930
aS'30006025'
p931
aS'30006038'
p932
aS'30006531'
p933
aS'30006569'
p934
as(S'ernestobf'
p935
S'30009479'
p936
tp937
(lp938
s(S'bramandia'
p939
S'30008890'
p940
tp941
(lp942
S'30008017'
p943
aS'30008161'
p944
aS'30014912'
p945
aS'30007112'
p946
aS'30007276'
p947
as(S'kurtrips'
p948
S'30005913'
p949
tp950
(lp951
S'30027986'
p952
aS'30028019'
p953
aS'30028020'
p954
aS'30028021'
p955
aS'30007074'
p956
aS'30031083'
p957
aS'30006811'
p958
aS'30024359'
p959
aS'30015701'
p960
aS'30015812'
p961
aS'30030344'
p962
aS'30030346'
p963
aS'30030905'
p964
aS'30025318'
p965
aS'30025319'
p966
aS'30019816'
p967
aS'30019817'
p968
aS'30007119'
p969
aS'30007122'
p970
aS'30017921'
p971
aS'30019152'
p972
aS'30017929'
p973
aS'30031028'
p974
aS'30012568'
p975
as(S'almakldy'
p976
S'30006212'
p977
tp978
(lp979
s(S'onsky'
p980
S'30006589'
p981
tp982
(lp983
S'30005637'
p984
aS'30050045'
p985
aS'30014505'
p986
aS'30013941'
p987
aS'30019407'
p988
aS'30019408'
p989
as(S'Lunarmony'
p990
S'30009300'
p991
tp992
(lp993
S'30006909'
p994
as(S'Orange_Cloud'
p995
S'30006133'
p996
tp997
(lp998
S'30006225'
p999
aS'30006322'
p1000
aS'30006902'
p1001
as(S'squarY'
p1002
S'30009070'
p1003
tp1004
(lp1005
s(S'loster'
p1006
S'30006075'
p1007
tp1008
(lp1009
s(S'Hacker_QC'
p1010
S'30006209'
p1011
tp1012
(lp1013
S'30005723'
p1014
aS'30006025'
p1015
aS'30006038'
p1016
as(S'zsudraco'
p1017
S'30006300'
p1018
tp1019
(lp1020
S'30006903'
p1021
aS'30005518'
p1022
aS'30005612'
p1023
aS'30005614'
p1024
aS'30005747'
p1025
aS'30007471'
p1026
aS'30031526'
p1027
aS'30031532'
p1028
aS'30049390'
p1029
aS'30049815'
p1030
aS'30050164'
p1031
aS'30018463'
p1032
aS'30024966'
p1033
aS'30023208'
p1034
aS'30026094'
p1035
aS'30026096'
p1036
aS'30026098'
p1037
aS'30027695'
p1038
aS'30027696'
p1039
aS'30034665'
p1040
aS'30035148'
p1041
aS'30035149'
p1042
aS'30027259'
p1043
aS'30027261'
p1044
aS'30027267'
p1045
aS'30013581'
p1046
aS'30028980'
p1047
aS'30031457'
p1048
aS'30046430'
p1049
aS'30019359'
p1050
aS'30024590'
p1051
aS'30025301'
p1052
aS'30028298'
p1053
aS'30023839'
p1054
aS'30027302'
p1055
aS'30027306'
p1056
aS'30029881'
p1057
as(S'extra'
p1058
S'30006330'
p1059
tp1060
(lp1061
s(S'argolite'
p1062
S'30005823'
p1063
tp1064
(lp1065
S'30027739'
p1066
aS'30029618'
p1067
aS'30006792'
p1068
aS'30005518'
p1069
aS'30007354'
p1070
aS'30007438'
p1071
aS'30008127'
p1072
aS'30027518'
p1073
aS'30031528'
p1074
aS'30031534'
p1075
aS'30031536'
p1076
aS'30031600'
p1077
aS'30032020'
p1078
aS'30032022'
p1079
aS'30032180'
p1080
aS'30032184'
p1081
aS'30032243'
p1082
aS'30006496'
p1083
aS'30006851'
p1084
aS'30006810'
p1085
aS'30006811'
p1086
aS'30049390'
p1087
aS'30049815'
p1088
aS'30005644'
p1089
aS'30005929'
p1090
aS'30011185'
p1091
aS'30011564'
p1092
aS'30011568'
p1093
aS'30011579'
p1094
aS'30011592'
p1095
aS'30011612'
p1096
aS'30011615'
p1097
aS'30011714'
p1098
aS'30011720'
p1099
aS'30011726'
p1100
aS'30011729'
p1101
aS'30011826'
p1102
aS'30011828'
p1103
aS'30011830'
p1104
aS'30012149'
p1105
aS'30012151'
p1106
aS'30012154'
p1107
aS'30012157'
p1108
aS'30012160'
p1109
aS'30033428'
p1110
aS'30034496'
p1111
aS'30018462'
p1112
aS'30018463'
p1113
aS'30025476'
p1114
aS'30025478'
p1115
aS'30026925'
p1116
aS'30026927'
p1117
aS'30026940'
p1118
aS'30027297'
p1119
aS'30035183'
p1120
aS'30036225'
p1121
aS'30025257'
p1122
aS'30025259'
p1123
aS'30025509'
p1124
aS'30025531'
p1125
aS'30026505'
p1126
aS'30026507'
p1127
aS'30034439'
p1128
aS'30042811'
p1129
aS'30043014'
p1130
aS'30012954'
p1131
aS'30014031'
p1132
aS'30014331'
p1133
aS'30014498'
p1134
aS'30014504'
p1135
aS'30014535'
p1136
aS'30014596'
p1137
aS'30014599'
p1138
aS'30012957'
p1139
aS'30014013'
p1140
aS'30014576'
p1141
aS'30026290'
p1142
aS'30027696'
p1143
aS'30013964'
p1144
aS'30031767'
p1145
aS'30008629'
p1146
aS'30009874'
p1147
aS'30033371'
p1148
aS'30035695'
p1149
aS'30015830'
p1150
aS'30016446'
p1151
aS'30016545'
p1152
aS'30030344'
p1153
aS'30030348'
p1154
aS'30030905'
p1155
aS'30031056'
p1156
aS'30031303'
p1157
aS'30026405'
p1158
aS'30027261'
p1159
aS'30027265'
p1160
aS'30027269'
p1161
aS'30027271'
p1162
aS'30031139'
p1163
aS'30031141'
p1164
aS'30009280'
p1165
aS'30009533'
p1166
aS'30009538'
p1167
aS'30009813'
p1168
aS'30007250'
p1169
aS'30007310'
p1170
aS'30007314'
p1171
aS'30007330'
p1172
aS'30007408'
p1173
aS'30007419'
p1174
aS'30028980'
p1175
aS'30028981'
p1176
aS'30025002'
p1177
aS'30019359'
p1178
aS'30023203'
p1179
aS'30025337'
p1180
aS'30021882'
p1181
aS'30019816'
p1182
aS'30019817'
p1183
aS'30014859'
p1184
aS'30014119'
p1185
aS'30006333'
p1186
aS'30006264'
p1187
aS'30006220'
p1188
aS'30006363'
p1189
aS'30006508'
p1190
aS'30028361'
p1191
aS'30031461'
p1192
aS'30017081'
p1193
aS'30017573'
p1194
aS'30017575'
p1195
aS'30017678'
p1196
aS'30017702'
p1197
aS'30017000'
p1198
aS'30023773'
p1199
aS'30023833'
p1200
aS'30024419'
p1201
aS'30025243'
p1202
aS'30025636'
p1203
aS'30027163'
p1204
aS'30027305'
p1205
aS'30027306'
p1206
aS'30029974'
p1207
aS'30029884'
p1208
aS'30012062'
p1209
as(S'iKnown'
p1210
S'30006133'
p1211
tp1212
(lp1213
S'30005791'
p1214
as(S'bramandia'
p1215
S'30006011'
p1216
tp1217
(lp1218
S'30008017'
p1219
aS'30008161'
p1220
aS'30014912'
p1221
aS'30007112'
p1222
aS'30007276'
p1223
as(S'bbxiong'
p1224
S'30006108'
p1225
tp1226
(lp1227
S'30007694'
p1228
aS'30006025'
p1229
aS'30006875'
p1230
as(S'caru'
p1231
S'30006029'
p1232
tp1233
(lp1234
S'30005747'
p1235
aS'30012151'
p1236
aS'30012154'
p1237
aS'30012157'
p1238
aS'30008630'
p1239
aS'30008632'
p1240
aS'30008634'
p1241
aS'30012600'
p1242
aS'30013581'
p1243
aS'30013583'
p1244
aS'30007310'
p1245
aS'30007314'
p1246
aS'30007408'
p1247
aS'30007419'
p1248
aS'30007420'
p1249
aS'30018160'
p1250
aS'30018200'
p1251
aS'30013165'
p1252
aS'30013385'
p1253
aS'30013544'
p1254
as(S'caru'
p1255
S'30008709'
p1256
tp1257
(lp1258
S'30005747'
p1259
aS'30012151'
p1260
aS'30012154'
p1261
aS'30012157'
p1262
aS'30008630'
p1263
aS'30008632'
p1264
aS'30008634'
p1265
aS'30012600'
p1266
aS'30013581'
p1267
aS'30013583'
p1268
aS'30007310'
p1269
aS'30007314'
p1270
aS'30007408'
p1271
aS'30007419'
p1272
aS'30007420'
p1273
aS'30018160'
p1274
aS'30018200'
p1275
aS'30013165'
p1276
aS'30013385'
p1277
aS'30013544'
p1278
as(S'BeBetter'
p1279
S'30006423'
p1280
tp1281
(lp1282
S'30011177'
p1283
aS'30012304'
p1284
aS'30012306'
p1285
aS'30012884'
p1286
aS'30012885'
p1287
as(S'EveningSun'
p1288
S'30008740'
p1289
tp1290
(lp1291
S'30007125'
p1292
aS'30007278'
p1293
aS'30007363'
p1294
aS'30007398'
p1295
aS'30005740'
p1296
aS'30005787'
p1297
aS'30006025'
p1298
aS'30006038'
p1299
aS'30014536'
p1300
aS'30015037'
p1301
aS'30015328'
p1302
aS'30015688'
p1303
aS'30009875'
p1304
aS'30016064'
p1305
aS'30006484'
p1306
as(S'Mafy'
p1307
S'30006027'
p1308
tp1309
(lp1310
s(S'Indemar'
p1311
S'30006029'
p1312
tp1313
(lp1314
S'30025941'
p1315
aS'30031400'
p1316
aS'30034539'
p1317
aS'30017518'
p1318
aS'30017962'
p1319
aS'30028354'
p1320
aS'30017422'
p1321
as(S'ben.lv'
p1322
S'30009479'
p1323
tp1324
(lp1325
S'30007125'
p1326
aS'30027367'
p1327
aS'30029877'
p1328
as(S'zhongqiangzhang'
p1329
S'30009070'
p1330
tp1331
(lp1332
S'30008216'
p1333
aS'30006853'
p1334
aS'30031887'
p1335
aS'30033708'
p1336
aS'30010515'
p1337
aS'30007426'
p1338
as(S'bbxiong'
p1339
S'30006330'
p1340
tp1341
(lp1342
S'30007694'
p1343
aS'30006025'
p1344
aS'30006875'
p1345
as(S'sb99'
p1346
S'30006075'
p1347
tp1348
(lp1349
S'30006175'
p1350
as(S'romanoTC'
p1351
S'30006108'
p1352
tp1353
(lp1354
S'30006025'
p1355
aS'30019523'
p1356
aS'30010506'
p1357
aS'30010589'
p1358
aS'30022362'
p1359
aS'30015060'
p1360
as(S'web_master'
p1361
S'30006108'
p1362
tp1363
(lp1364
S'30005796'
p1365
aS'30006243'
p1366
aS'30006455'
p1367
as(S'Standlove'
p1368
S'30006027'
p1369
tp1370
(lp1371
S'30017758'
p1372
aS'30018051'
p1373
aS'30034664'
p1374
aS'30034665'
p1375
aS'30034947'
p1376
aS'30034948'
p1377
aS'30015490'
p1378
aS'30015830'
p1379
aS'30039122'
p1380
aS'30009692'
p1381
aS'30009698'
p1382
aS'30011321'
p1383
aS'30009535'
p1384
aS'30009537'
p1385
aS'30009538'
p1386
aS'30009684'
p1387
aS'30009153'
p1388
aS'30009157'
p1389
aS'30009159'
p1390
aS'30009166'
p1391
aS'30009168'
p1392
aS'30009170'
p1393
aS'30009172'
p1394
aS'30009174'
p1395
aS'30009178'
p1396
aS'30007330'
p1397
aS'30006094'
p1398
aS'30007632'
p1399
aS'30007692'
p1400
aS'30007815'
p1401
aS'30017393'
p1402
aS'30017951'
p1403
aS'30018270'
p1404
aS'30018282'
p1405
aS'30024651'
p1406
aS'30025650'
p1407
aS'30026052'
p1408
aS'30010969'
p1409
aS'30011480'
p1410
as(S'web_master'
p1411
S'30006212'
p1412
tp1413
(lp1414
S'30005796'
p1415
aS'30006243'
p1416
aS'30006455'
p1417
as(S'tangliangl'
p1418
S'30006029'
p1419
tp1420
(lp1421
S'30005610'
p1422
aS'30005634'
p1423
aS'30007694'
p1424
aS'30024393'
p1425
aS'30019373'
p1426
aS'30019375'
p1427
aS'30006312'
p1428
as(S'HumbleSunflower'
p1429
S'30006108'
p1430
tp1431
(lp1432
S'30007437'
p1433
aS'30007145'
p1434
aS'30006024'
p1435
aS'30014332'
p1436
aS'30014502'
p1437
aS'30014023'
p1438
aS'30008633'
p1439
aS'30008635'
p1440
aS'30008888'
p1441
aS'30007404'
p1442
aS'30007426'
p1443
aS'30007427'
p1444
aS'30007470'
p1445
aS'30007480'
p1446
aS'30014867'
p1447
aS'30016064'
p1448
as(S'Mafy'
p1449
S'30006028'
p1450
tp1451
(lp1452
s(S'caru'
p1453
S'30008890'
p1454
tp1455
(lp1456
S'30005747'
p1457
aS'30012151'
p1458
aS'30012154'
p1459
aS'30012157'
p1460
aS'30008630'
p1461
aS'30008632'
p1462
aS'30008634'
p1463
aS'30012600'
p1464
aS'30013581'
p1465
aS'30013583'
p1466
aS'30007310'
p1467
aS'30007314'
p1468
aS'30007408'
p1469
aS'30007419'
p1470
aS'30007420'
p1471
aS'30018160'
p1472
aS'30018200'
p1473
aS'30013165'
p1474
aS'30013385'
p1475
aS'30013544'
p1476
as(S'woodjhon'
p1477
S'30008890'
p1478
tp1479
(lp1480
S'30006903'
p1481
aS'30006991'
p1482
aS'30006992'
p1483
aS'30007161'
p1484
aS'30007438'
p1485
aS'30032078'
p1486
aS'30032182'
p1487
aS'30024968'
p1488
aS'30024971'
p1489
aS'30025093'
p1490
aS'30026893'
p1491
aS'30026925'
p1492
aS'30018662'
p1493
aS'30023740'
p1494
aS'30024357'
p1495
aS'30024359'
p1496
aS'30029681'
p1497
aS'30031109'
p1498
aS'30015689'
p1499
aS'30015701'
p1500
aS'30031769'
p1501
aS'30008630'
p1502
aS'30008632'
p1503
aS'30008634'
p1504
aS'30033859'
p1505
aS'30035512'
p1506
aS'30030346'
p1507
aS'30030348'
p1508
aS'30027259'
p1509
aS'30031137'
p1510
aS'30031141'
p1511
aS'30009692'
p1512
aS'30009698'
p1513
aS'30009535'
p1514
aS'30009537'
p1515
aS'30009538'
p1516
aS'30009153'
p1517
aS'30009157'
p1518
aS'30009166'
p1519
aS'30009168'
p1520
aS'30009170'
p1521
aS'30009172'
p1522
aS'30009174'
p1523
aS'30009176'
p1524
aS'30007310'
p1525
aS'30007314'
p1526
aS'30007331'
p1527
aS'30030438'
p1528
aS'30030504'
p1529
aS'30030542'
p1530
aS'30019367'
p1531
aS'30019371'
p1532
aS'30019375'
p1533
aS'30019377'
p1534
aS'30019379'
p1535
aS'30019381'
p1536
aS'30024472'
p1537
aS'30024517'
p1538
aS'30024050'
p1539
aS'30024056'
p1540
aS'30024217'
p1541
aS'30007111'
p1542
aS'30007123'
p1543
aS'30007276'
p1544
aS'30007279'
p1545
aS'30007288'
p1546
aS'30007289'
p1547
aS'30007292'
p1548
aS'30017571'
p1549
aS'30017577'
p1550
aS'30017700'
p1551
aS'30018202'
p1552
aS'30018206'
p1553
aS'30018208'
p1554
aS'30018271'
p1555
aS'30018275'
p1556
aS'30018277'
p1557
aS'30018279'
p1558
aS'30030028'
p1559
aS'30030032'
p1560
aS'30031028'
p1561
aS'30031128'
p1562
aS'30031565'
p1563
as(S'liuliquan'
p1564
S'30006013'
p1565
tp1566
(lp1567
S'30006904'
p1568
aS'30006992'
p1569
aS'30031535'
p1570
aS'30014032'
p1571
aS'30014601'
p1572
aS'30014014'
p1573
aS'30014574'
p1574
aS'30027706'
p1575
aS'30031109'
p1576
aS'30014859'
p1577
as(S'ben.lv'
p1578
S'30009490'
p1579
tp1580
(lp1581
S'30007125'
p1582
aS'30027367'
p1583
aS'30029877'
p1584
as(S'verycai'
p1585
S'30009479'
p1586
tp1587
(lp1588
s(S'morehappiness'
p1589
S'30006107'
p1590
tp1591
(lp1592
S'30007362'
p1593
aS'30005787'
p1594
aS'30006038'
p1595
aS'30034371'
p1596
aS'30031945'
p1597
aS'30031946'
p1598
aS'30031978'
p1599
aS'30032028'
p1600
aS'30032160'
p1601
aS'30032379'
p1602
aS'30033821'
p1603
aS'30033964'
p1604
aS'30033968'
p1605
aS'30033970'
p1606
aS'30014499'
p1607
aS'30014502'
p1608
aS'30014014'
p1609
aS'30027287'
p1610
aS'30042127'
p1611
aS'30033278'
p1612
aS'30034065'
p1613
aS'30034244'
p1614
aS'30030964'
p1615
aS'30031434'
p1616
aS'30039535'
p1617
aS'30014863'
p1618
aS'30018453'
p1619
aS'30018891'
p1620
aS'30023566'
p1621
aS'30023645'
p1622
aS'30024010'
p1623
aS'30024011'
p1624
aS'30024030'
p1625
aS'30024209'
p1626
aS'30025113'
p1627
aS'30025248'
p1628
aS'30025855'
p1629
aS'30025862'
p1630
as(S'wanxqc'
p1631
S'30009479'
p1632
tp1633
(lp1634
S'30008078'
p1635
aS'30008079'
p1636
aS'30008325'
p1637
aS'30024967'
p1638
aS'30014602'
p1639
aS'30008888'
p1640
aS'30007422'
p1641
aS'30031990'
p1642
as(S'angellovegrace'
p1643
S'30006108'
p1644
tp1645
(lp1646
S'30027701'
p1647
aS'30031057'
p1648
as(S'ben.lv'
p1649
S'30009247'
p1650
tp1651
(lp1652
S'30007125'
p1653
aS'30027367'
p1654
aS'30029877'
p1655
as(S'MiG-29'
p1656
S'30005691'
p1657
tp1658
(lp1659
S'30005504'
p1660
aS'30006563'
p1661
aS'30005613'
p1662
aS'30007214'
p1663
aS'30008233'
p1664
aS'30006305'
p1665
aS'30006631'
p1666
aS'30005644'
p1667
aS'30034496'
p1668
aS'30018459'
p1669
aS'30035183'
p1670
aS'30028127'
p1671
aS'30028937'
p1672
aS'30016392'
p1673
aS'30010568'
p1674
aS'30010570'
p1675
aS'30012616'
p1676
aS'30024888'
p1677
aS'30008440'
p1678
aS'30008441'
p1679
aS'30006640'
p1680
aS'30024760'
p1681
aS'30032404'
p1682
aS'30019078'
p1683
aS'30013706'
p1684
aS'30006056'
p1685
aS'30006162'
p1686
aS'30016218'
p1687
aS'30016900'
p1688
aS'30023818'
p1689
as(S'lijianzhong'
p1690
S'30006107'
p1691
tp1692
(lp1693
S'30007404'
p1694
aS'30006568'
p1695
as(S'DanLazar'
p1696
S'30005913'
p1697
tp1698
(lp1699
S'30005633'
p1700
aS'30007831'
p1701
aS'30008018'
p1702
aS'30008019'
p1703
aS'30008020'
p1704
aS'30008036'
p1705
aS'30008640'
p1706
aS'30034497'
p1707
aS'30034432'
p1708
aS'30041691'
p1709
aS'30014610'
p1710
aS'30012600'
p1711
aS'30008816'
p1712
aS'30008440'
p1713
aS'30008441'
p1714
aS'30006750'
p1715
aS'30006877'
p1716
aS'30017518'
p1717
aS'30013152'
p1718
aS'30007112'
p1719
aS'30007288'
p1720
aS'30006313'
p1721
aS'30018158'
p1722
aS'30013154'
p1723
as(S'velorien'
p1724
S'30006107'
p1725
tp1726
(lp1727
S'30006853'
p1728
aS'30031624'
p1729
aS'30026346'
p1730
aS'30006243'
p1731
aS'30006455'
p1732
aS'30006630'
p1733
aS'30007116'
p1734
aS'30008173'
p1735
aS'30008444'
p1736
aS'30008484'
p1737
aS'30006312'
p1738
as(S'fivestarwy'
p1739
S'30009300'
p1740
tp1741
(lp1742
S'30028992'
p1743
aS'30007124'
p1744
aS'30007362'
p1745
aS'30007473'
p1746
aS'30007694'
p1747
aS'30031624'
p1748
aS'30027416'
p1749
aS'30027701'
p1750
aS'30029682'
p1751
aS'30015701'
p1752
aS'30030345'
p1753
aS'30007407'
p1754
aS'30028978'
p1755
aS'30046429'
p1756
aS'30023498'
p1757
aS'30039533'
p1758
aS'30006487'
p1759
aS'30030029'
p1760
as(S'TAG'
p1761
S'30007134'
p1762
tp1763
(lp1764
S'30024447'
p1765
as(S'Pops'
p1766
S'30006029'
p1767
tp1768
(lp1769
s(S'iRabbit'
p1770
S'30009490'
p1771
tp1772
(lp1773
S'30007133'
p1774
aS'30006980'
p1775
aS'30013724'
p1776
as.