(dp0
(S'nico_vui'
p1
S'30028567'
p2
tp3
(lp4
s(S'nikolay83'
p5
S'30028566'
p6
tp7
(lp8
S'30028020'
p9
aS'30028590'
p10
aS'30016950'
p11
aS'30026290'
p12
aS'30027695'
p13
aS'30016541'
p14
aS'30026405'
p15
aS'30027255'
p16
aS'30024344'
p17
aS'30028358'
p18
aS'30017081'
p19
aS'30017393'
p20
aS'30017571'
p21
aS'30017000'
p22
aS'30017927'
p23
aS'30018156'
p24
aS'30018160'
p25
aS'30018162'
p26
aS'30023833'
p27
aS'30025636'
p28
as(S'fivestarwy'
p29
S'30027416'
p30
tp31
(lp32
S'30028992'
p33
aS'30007124'
p34
aS'30007362'
p35
aS'30007473'
p36
aS'30007694'
p37
aS'30031624'
p38
aS'30006330'
p39
aS'30008663'
p40
aS'30009300'
p41
aS'30027701'
p42
aS'30029682'
p43
aS'30015701'
p44
aS'30030345'
p45
aS'30007407'
p46
aS'30028978'
p47
aS'30046429'
p48
aS'30023498'
p49
aS'30039533'
p50
aS'30006487'
p51
aS'30030029'
p52
as(S'nico_vui'
p53
S'30027417'
p54
tp55
(lp56
s(S'Schpotsky'
p57
S'30028568'
p58
tp59
(lp60
S'30032178'
p61
aS'30032180'
p62
aS'30027700'
p63
aS'30031757'
p64
aS'30031137'
p65
aS'30028981'
p66
aS'30030440'
p67
aS'30025110'
p68
aS'30023220'
p69
aS'30007126'
p70
aS'30017923'
p71
aS'30018164'
p72
aS'30018166'
p73
aS'30018273'
p74
aS'30030050'
p75
as(S'Schpotsky'
p76
S'30027413'
p77
tp78
(lp79
S'30032178'
p80
aS'30032180'
p81
aS'30027700'
p82
aS'30031757'
p83
aS'30031137'
p84
aS'30028981'
p85
aS'30030440'
p86
aS'30025110'
p87
aS'30023220'
p88
aS'30007126'
p89
aS'30017923'
p90
aS'30018164'
p91
aS'30018166'
p92
aS'30018273'
p93
aS'30030050'
p94
as(S'Schpotsky'
p95
S'30028566'
p96
tp97
(lp98
S'30032178'
p99
aS'30032180'
p100
aS'30027700'
p101
aS'30031757'
p102
aS'30031137'
p103
aS'30028981'
p104
aS'30030440'
p105
aS'30025110'
p106
aS'30023220'
p107
aS'30007126'
p108
aS'30017923'
p109
aS'30018164'
p110
aS'30018166'
p111
aS'30018273'
p112
aS'30030050'
p113
as(S'nico_vui'
p114
S'30028569'
p115
tp116
(lp117
s(S'harshasanghi'
p118
S'30028569'
p119
tp120
(lp121
s(S'nico_vui'
p122
S'30027416'
p123
tp124
(lp125
s(S'harshasanghi'
p126
S'30028571'
p127
tp128
(lp129
s(S'BLE'
p130
S'30027411'
p131
tp132
(lp133
S'30027981'
p134
aS'30025945'
p135
aS'30007214'
p136
aS'30007354'
p137
aS'30007438'
p138
aS'30007831'
p139
aS'30008013'
p140
aS'30008021'
p141
aS'30008036'
p142
aS'30008640'
p143
aS'30027071'
p144
aS'30027871'
p145
aS'30030792'
p146
aS'30030793'
p147
aS'30031082'
p148
aS'30006817'
p149
aS'30006832'
p150
aS'30031891'
p151
aS'30031889'
p152
aS'30031890'
p153
aS'30018459'
p154
aS'30035832'
p155
aS'30018450'
p156
aS'30026654'
p157
aS'30017273'
p158
aS'30034438'
p159
aS'30012954'
p160
aS'30025723'
p161
aS'30027087'
p162
aS'30015683'
p163
aS'30015687'
p164
aS'30028778'
p165
aS'30015490'
p166
aS'30015806'
p167
aS'30015808'
p168
aS'30015812'
p169
aS'30015830'
p170
aS'30015862'
p171
aS'30015989'
p172
aS'30016545'
p173
aS'30027253'
p174
aS'30027255'
p175
aS'30027256'
p176
aS'30040475'
p177
aS'30006965'
p178
aS'30028769'
p179
aS'30018215'
p180
aS'30024760'
p181
aS'30019287'
p182
aS'30013947'
p183
aS'30014862'
p184
aS'30014866'
p185
aS'30014869'
p186
aS'30015715'
p187
aS'30016402'
p188
aS'30014083'
p189
aS'30014119'
p190
aS'30016900'
p191
aS'30017081'
p192
aS'30017393'
p193
aS'30017900'
p194
aS'30017923'
p195
aS'30018106'
p196
aS'30017422'
p197
aS'30023817'
p198
aS'30023839'
p199
aS'30025243'
p200
aS'30025366'
p201
aS'30027301'
p202
aS'30012063'
p203
aS'30013165'
p204
aS'30013169'
p205
aS'30013385'
p206
as(S'nikolay83'
p207
S'30028570'
p208
tp209
(lp210
S'30028020'
p211
aS'30028590'
p212
aS'30016950'
p213
aS'30026290'
p214
aS'30027695'
p215
aS'30016541'
p216
aS'30026405'
p217
aS'30027255'
p218
aS'30024344'
p219
aS'30028358'
p220
aS'30017081'
p221
aS'30017393'
p222
aS'30017571'
p223
aS'30017000'
p224
aS'30017927'
p225
aS'30018156'
p226
aS'30018160'
p227
aS'30018162'
p228
aS'30023833'
p229
aS'30025636'
p230
as(S'dineshhere'
p231
S'30028568'
p232
tp233
(lp234
s(S'gevak'
p235
S'30027412'
p236
tp237
(lp238
S'30028590'
p239
aS'30006991'
p240
aS'30005747'
p241
aS'30031530'
p242
aS'30032182'
p243
aS'30025478'
p244
aS'30029583'
p245
aS'30023740'
p246
aS'30014030'
p247
aS'30014331'
p248
aS'30014535'
p249
aS'30014599'
p250
aS'30014603'
p251
aS'30014605'
p252
aS'30014022'
p253
aS'30014610'
p254
aS'30006012'
p255
aS'30015685'
p256
aS'30027257'
p257
aS'30031457'
p258
aS'30019373'
p259
aS'30024474'
p260
aS'30024476'
p261
aS'30025335'
p262
aS'30014908'
p263
aS'30017929'
p264
as(S'nikolay83'
p265
S'30028568'
p266
tp267
(lp268
S'30028020'
p269
aS'30028590'
p270
aS'30016950'
p271
aS'30026290'
p272
aS'30027695'
p273
aS'30016541'
p274
aS'30026405'
p275
aS'30027255'
p276
aS'30024344'
p277
aS'30028358'
p278
aS'30017081'
p279
aS'30017393'
p280
aS'30017571'
p281
aS'30017000'
p282
aS'30017927'
p283
aS'30018156'
p284
aS'30018160'
p285
aS'30018162'
p286
aS'30023833'
p287
aS'30025636'
p288
as(S'winterflame'
p289
S'30027411'
p290
tp291
(lp292
S'30027981'
p293
aS'30025945'
p294
aS'30008236'
p295
aS'30027871'
p296
aS'30030792'
p297
aS'30006832'
p298
aS'30049610'
p299
aS'30049821'
p300
aS'30050327'
p301
aS'30050581'
p302
aS'30027447'
p303
aS'30035832'
p304
aS'30043098'
p305
aS'30028937'
p306
aS'30029408'
p307
aS'30043390'
p308
aS'30017044'
p309
aS'30017273'
p310
aS'30034438'
p311
aS'30027087'
p312
aS'30028778'
p313
aS'30015170'
p314
aS'30015989'
p315
aS'30027253'
p316
aS'30040475'
p317
aS'30013269'
p318
aS'30012869'
p319
aS'30028977'
p320
aS'30019363'
p321
aS'30023802'
p322
aS'30041737'
p323
aS'30018890'
p324
aS'30024822'
p325
aS'30013947'
p326
aS'30015715'
p327
aS'30007280'
p328
aS'30006306'
p329
aS'30006487'
p330
aS'30017571'
p331
aS'30017676'
p332
aS'30017862'
p333
aS'30027301'
p334
aS'30029877'
p335
aS'30011225'
p336
aS'30012063'
p337
aS'30012064'
p338
as(S'harshasanghi'
p339
S'30028567'
p340
tp341
(lp342
s(S'Schpotsky'
p343
S'30027415'
p344
tp345
(lp346
S'30032178'
p347
aS'30032180'
p348
aS'30027700'
p349
aS'30031757'
p350
aS'30031137'
p351
aS'30028981'
p352
aS'30030440'
p353
aS'30025110'
p354
aS'30023220'
p355
aS'30007126'
p356
aS'30017923'
p357
aS'30018164'
p358
aS'30018166'
p359
aS'30018273'
p360
aS'30030050'
p361
as(S'harshasanghi'
p362
S'30027417'
p363
tp364
(lp365
s(S'Sundeep.techie'
p366
S'30028570'
p367
tp368
(lp369
S'30025534'
p370
aS'30026510'
p371
aS'30027054'
p372
as(S'nikolay83'
p373
S'30027415'
p374
tp375
(lp376
S'30028020'
p377
aS'30028590'
p378
aS'30016950'
p379
aS'30026290'
p380
aS'30027695'
p381
aS'30016541'
p382
aS'30026405'
p383
aS'30027255'
p384
aS'30024344'
p385
aS'30028358'
p386
aS'30017081'
p387
aS'30017393'
p388
aS'30017571'
p389
aS'30017000'
p390
aS'30017927'
p391
aS'30018156'
p392
aS'30018160'
p393
aS'30018162'
p394
aS'30023833'
p395
aS'30025636'
p396
as(S'nico_vui'
p397
S'30027414'
p398
tp399
(lp400
s(S'dineshhere'
p401
S'30028570'
p402
tp403
(lp404
s.