(dp0
(S'hi4sandy'
p1
S'30035185'
p2
tp3
(lp4
S'30034543'
p5
aS'30036099'
p6
aS'30031936'
p7
aS'30032029'
p8
aS'30033561'
p9
aS'30027699'
p10
aS'30024987'
p11
aS'30028979'
p12
aS'30025289'
p13
aS'30050467'
p14
aS'30026344'
p15
aS'30028299'
p16
aS'30025322'
p17
aS'30028359'
p18
aS'30031920'
p19
aS'30032490'
p20
as(S'Standlove'
p21
S'30034948'
p22
tp23
(lp24
S'30017758'
p25
aS'30018051'
p26
aS'30005914'
p27
aS'30006026'
p28
aS'30006027'
p29
aS'30015490'
p30
aS'30015830'
p31
aS'30039122'
p32
aS'30009692'
p33
aS'30009698'
p34
aS'30011321'
p35
aS'30009535'
p36
aS'30009537'
p37
aS'30009538'
p38
aS'30009684'
p39
aS'30009153'
p40
aS'30009157'
p41
aS'30009159'
p42
aS'30009166'
p43
aS'30009168'
p44
aS'30009170'
p45
aS'30009172'
p46
aS'30009174'
p47
aS'30009178'
p48
aS'30007330'
p49
aS'30006094'
p50
aS'30007632'
p51
aS'30007692'
p52
aS'30007815'
p53
aS'30017393'
p54
aS'30017951'
p55
aS'30018270'
p56
aS'30018282'
p57
aS'30024651'
p58
aS'30025650'
p59
aS'30026052'
p60
aS'30010969'
p61
aS'30011480'
p62
as(S'oipn4e2'
p63
S'30036180'
p64
tp65
(lp66
s(S'vvvpig'
p67
S'30035987'
p68
tp69
(lp70
S'30028017'
p71
aS'30033429'
p72
aS'30033430'
p73
aS'30033432'
p74
aS'30034474'
p75
aS'30034498'
p76
aS'30034501'
p77
aS'30034997'
p78
aS'30035833'
p79
aS'30036163'
p80
aS'30036296'
p81
aS'30036329'
p82
aS'30038186'
p83
aS'30031580'
p84
aS'30031683'
p85
aS'30031945'
p86
aS'30031946'
p87
aS'30031978'
p88
aS'30032160'
p89
aS'30027776'
p90
aS'30031840'
p91
aS'30032081'
p92
aS'30041212'
p93
aS'30042127'
p94
aS'30026054'
p95
aS'30027190'
p96
aS'30028301'
p97
aS'30030964'
p98
aS'30023180'
p99
aS'30024010'
p100
aS'30024011'
p101
aS'30024560'
p102
aS'30025631'
p103
aS'30026307'
p104
aS'30026371'
p105
aS'30026374'
p106
aS'30026375'
p107
as(S'vvvpig'
p108
S'30033398'
p109
tp110
(lp111
S'30028017'
p112
aS'30033429'
p113
aS'30033430'
p114
aS'30033432'
p115
aS'30034474'
p116
aS'30034498'
p117
aS'30034501'
p118
aS'30034997'
p119
aS'30035833'
p120
aS'30036163'
p121
aS'30036296'
p122
aS'30036329'
p123
aS'30038186'
p124
aS'30031580'
p125
aS'30031683'
p126
aS'30031945'
p127
aS'30031946'
p128
aS'30031978'
p129
aS'30032160'
p130
aS'30027776'
p131
aS'30031840'
p132
aS'30032081'
p133
aS'30041212'
p134
aS'30042127'
p135
aS'30026054'
p136
aS'30027190'
p137
aS'30028301'
p138
aS'30030964'
p139
aS'30023180'
p140
aS'30024010'
p141
aS'30024011'
p142
aS'30024560'
p143
aS'30025631'
p144
aS'30026307'
p145
aS'30026371'
p146
aS'30026374'
p147
aS'30026375'
p148
as(S'ksladkov'
p149
S'30035185'
p150
tp151
(lp152
S'30035872'
p153
aS'30033672'
p154
aS'30033561'
p155
aS'30048454'
p156
as(S'tongkunvwang'
p157
S'30035517'
p158
tp159
(lp160
s(S'babyfox'
p161
S'30036124'
p162
tp163
(lp164
S'30028835'
p165
aS'30033591'
p166
aS'30033610'
p167
aS'30018566'
p168
aS'30022361'
p169
aS'30019357'
p170
aS'30023776'
p171
aS'30029353'
p172
aS'30015729'
p173
aS'30017675'
p174
aS'30024650'
p175
aS'30023832'
p176
aS'30026424'
p177
aS'30031892'
p178
aS'30032490'
p179
aS'30013545'
p180
as(S'zsudraco'
p181
S'30035149'
p182
tp183
(lp184
S'30006903'
p185
aS'30005518'
p186
aS'30005612'
p187
aS'30005614'
p188
aS'30005747'
p189
aS'30007471'
p190
aS'30031526'
p191
aS'30031532'
p192
aS'30049390'
p193
aS'30049815'
p194
aS'30050164'
p195
aS'30018463'
p196
aS'30024966'
p197
aS'30023208'
p198
aS'30026094'
p199
aS'30026096'
p200
aS'30026098'
p201
aS'30005823'
p202
aS'30006300'
p203
aS'30027695'
p204
aS'30027696'
p205
aS'30027259'
p206
aS'30027261'
p207
aS'30027267'
p208
aS'30013581'
p209
aS'30028980'
p210
aS'30031457'
p211
aS'30046430'
p212
aS'30019359'
p213
aS'30024590'
p214
aS'30025301'
p215
aS'30028298'
p216
aS'30023839'
p217
aS'30027302'
p218
aS'30027306'
p219
aS'30029881'
p220
as(S'albertwang'
p221
S'30033371'
p222
tp223
(lp224
S'30025947'
p225
aS'30027073'
p226
aS'30049390'
p227
aS'30050164'
p228
aS'30033425'
p229
aS'30025478'
p230
aS'30026925'
p231
aS'30029304'
p232
aS'30031428'
p233
aS'30031832'
p234
aS'30025533'
p235
aS'30031104'
p236
aS'30028780'
p237
aS'30028975'
p238
aS'30030837'
p239
aS'30031129'
p240
aS'30025318'
p241
aS'30046428'
p242
aS'30019358'
p243
aS'30043038'
p244
aS'30043216'
p245
aS'30032407'
p246
aS'30028358'
p247
aS'30028361'
p248
aS'30030909'
p249
aS'30023840'
p250
as(S'yedtoss'
p251
S'30033859'
p252
tp253
(lp254
S'30035803'
p255
aS'30036200'
p256
aS'30047112'
p257
aS'30041734'
p258
aS'30039535'
p259
aS'30049447'
p260
as(S'SePulTribe'
p261
S'30033398'
p262
tp263
(lp264
s(S'yedtoss'
p265
S'30033394'
p266
tp267
(lp268
S'30035803'
p269
aS'30036200'
p270
aS'30047112'
p271
aS'30041734'
p272
aS'30039535'
p273
aS'30049447'
p274
as(S'agus.mw'
p275
S'30033398'
p276
tp277
(lp278
s(S'woodjhon'
p279
S'30035512'
p280
tp281
(lp282
S'30006903'
p283
aS'30006991'
p284
aS'30006992'
p285
aS'30007161'
p286
aS'30007438'
p287
aS'30032078'
p288
aS'30032182'
p289
aS'30024968'
p290
aS'30024971'
p291
aS'30025093'
p292
aS'30026893'
p293
aS'30026925'
p294
aS'30018662'
p295
aS'30023740'
p296
aS'30024357'
p297
aS'30024359'
p298
aS'30008890'
p299
aS'30029681'
p300
aS'30031109'
p301
aS'30015689'
p302
aS'30015701'
p303
aS'30031769'
p304
aS'30008630'
p305
aS'30008632'
p306
aS'30008634'
p307
aS'30030346'
p308
aS'30030348'
p309
aS'30027259'
p310
aS'30031137'
p311
aS'30031141'
p312
aS'30009692'
p313
aS'30009698'
p314
aS'30009535'
p315
aS'30009537'
p316
aS'30009538'
p317
aS'30009153'
p318
aS'30009157'
p319
aS'30009166'
p320
aS'30009168'
p321
aS'30009170'
p322
aS'30009172'
p323
aS'30009174'
p324
aS'30009176'
p325
aS'30007310'
p326
aS'30007314'
p327
aS'30007331'
p328
aS'30030438'
p329
aS'30030504'
p330
aS'30030542'
p331
aS'30019367'
p332
aS'30019371'
p333
aS'30019375'
p334
aS'30019377'
p335
aS'30019379'
p336
aS'30019381'
p337
aS'30024472'
p338
aS'30024517'
p339
aS'30024050'
p340
aS'30024056'
p341
aS'30024217'
p342
aS'30007111'
p343
aS'30007123'
p344
aS'30007276'
p345
aS'30007279'
p346
aS'30007288'
p347
aS'30007289'
p348
aS'30007292'
p349
aS'30017571'
p350
aS'30017577'
p351
aS'30017700'
p352
aS'30018202'
p353
aS'30018206'
p354
aS'30018208'
p355
aS'30018271'
p356
aS'30018275'
p357
aS'30018277'
p358
aS'30018279'
p359
aS'30030028'
p360
aS'30030032'
p361
aS'30031028'
p362
aS'30031128'
p363
aS'30031565'
p364
as(S'smart_raghavan'
p365
S'30035619'
p366
tp367
(lp368
S'30010024'
p369
as(S'Standlove'
p370
S'30034665'
p371
tp372
(lp373
S'30017758'
p374
aS'30018051'
p375
aS'30005914'
p376
aS'30006026'
p377
aS'30006027'
p378
aS'30015490'
p379
aS'30015830'
p380
aS'30039122'
p381
aS'30009692'
p382
aS'30009698'
p383
aS'30011321'
p384
aS'30009535'
p385
aS'30009537'
p386
aS'30009538'
p387
aS'30009684'
p388
aS'30009153'
p389
aS'30009157'
p390
aS'30009159'
p391
aS'30009166'
p392
aS'30009168'
p393
aS'30009170'
p394
aS'30009172'
p395
aS'30009174'
p396
aS'30009178'
p397
aS'30007330'
p398
aS'30006094'
p399
aS'30007632'
p400
aS'30007692'
p401
aS'30007815'
p402
aS'30017393'
p403
aS'30017951'
p404
aS'30018270'
p405
aS'30018282'
p406
aS'30024651'
p407
aS'30025650'
p408
aS'30026052'
p409
aS'30010969'
p410
aS'30011480'
p411
as(S'zeadom'
p412
S'30035187'
p413
tp414
(lp415
s(S'seeef'
p416
S'30039058'
p417
tp418
(lp419
S'30030916'
p420
aS'30030919'
p421
aS'30030918'
p422
aS'30031639'
p423
aS'30032166'
p424
aS'30031580'
p425
aS'30031683'
p426
aS'30031945'
p427
aS'30032028'
p428
aS'30032160'
p429
aS'30032379'
p430
aS'30033970'
p431
aS'30038791'
p432
as(S'virose'
p433
S'30036124'
p434
tp435
(lp436
S'30017983'
p437
aS'30011229'
p438
as(S'hi4sandy'
p439
S'30035619'
p440
tp441
(lp442
S'30034543'
p443
aS'30036099'
p444
aS'30031936'
p445
aS'30032029'
p446
aS'30033561'
p447
aS'30027699'
p448
aS'30024987'
p449
aS'30028979'
p450
aS'30025289'
p451
aS'30050467'
p452
aS'30026344'
p453
aS'30028299'
p454
aS'30025322'
p455
aS'30028359'
p456
aS'30031920'
p457
aS'30032490'
p458
as(S'svenson'
p459
S'30033394'
p460
tp461
(lp462
S'30033167'
p463
aS'30027726'
p464
aS'30027728'
p465
aS'30028978'
p466
as(S'sin_hu'
p467
S'30033372'
p468
tp469
(lp470
S'30025943'
p471
aS'30028586'
p472
aS'30036099'
p473
aS'30032598'
p474
aS'30029098'
p475
aS'30033645'
p476
aS'30027254'
p477
aS'30028979'
p478
aS'30048395'
p479
aS'30025322'
p480
aS'30029880'
p481
as(S'sparemax'
p482
S'30035512'
p483
tp484
(lp485
S'30031527'
p486
aS'30031531'
p487
aS'30031533'
p488
aS'30032178'
p489
aS'30024394'
p490
aS'30025475'
p491
aS'30025477'
p492
aS'30018663'
p493
aS'30023209'
p494
aS'30024360'
p495
aS'30026097'
p496
aS'30026099'
p497
aS'30014611'
p498
aS'30027701'
p499
aS'30027713'
p500
aS'30031105'
p501
aS'30015688'
p502
aS'30031756'
p503
aS'30031766'
p504
aS'30031057'
p505
aS'30027260'
p506
aS'30027262'
p507
aS'30027264'
p508
aS'30027266'
p509
aS'30027268'
p510
aS'30007407'
p511
aS'30007470'
p512
aS'30030439'
p513
aS'30031458'
p514
aS'30025868'
p515
aS'30019366'
p516
aS'30019368'
p517
aS'30019370'
p518
aS'30019380'
p519
aS'30019382'
p520
aS'30024491'
p521
aS'30025111'
p522
aS'30025300'
p523
aS'30025302'
p524
aS'30025304'
p525
aS'30028301'
p526
aS'30023221'
p527
aS'30024047'
p528
aS'30024049'
p529
aS'30024051'
p530
aS'30007371'
p531
aS'30017679'
p532
aS'30017701'
p533
aS'30017703'
p534
aS'30017705'
p535
aS'30018155'
p536
aS'30018157'
p537
aS'30018159'
p538
aS'30018161'
p539
aS'30018163'
p540
aS'30018165'
p541
aS'30018167'
p542
aS'30018201'
p543
aS'30018205'
p544
aS'30018207'
p545
aS'30018209'
p546
aS'30018272'
p547
aS'30018274'
p548
aS'30018276'
p549
aS'30018278'
p550
aS'30018280'
p551
aS'30023695'
p552
aS'30030029'
p553
aS'30029883'
p554
aS'30029885'
p555
as(S'ctrl2'
p556
S'30033859'
p557
tp558
(lp559
S'30033432'
p560
aS'30033434'
p561
aS'30032598'
p562
aS'30033890'
p563
aS'30034480'
p564
aS'30032490'
p565
as(S'codedoc'
p566
S'30035517'
p567
tp568
(lp569
S'30005611'
p570
aS'30005633'
p571
aS'30049610'
p572
aS'30050163'
p573
aS'30027087'
p574
as(S'caoweiquan322'
p575
S'30035987'
p576
tp577
(lp578
S'30041733'
p579
aS'30041734'
p580
aS'30041735'
p581
aS'30039535'
p582
as(S'oipn4e2'
p583
S'30036426'
p584
tp585
(lp586
s(S'lintc'
p587
S'30035184'
p588
tp589
(lp590
S'30033672'
p591
aS'30033561'
p592
aS'30032490'
p593
as(S'Lozy'
p594
S'30035517'
p595
tp596
(lp597
s(S'yedtoss'
p598
S'30038691'
p599
tp600
(lp601
S'30035803'
p602
aS'30036200'
p603
aS'30047112'
p604
aS'30041734'
p605
aS'30039535'
p606
aS'30049447'
p607
as(S'leftlzf'
p608
S'30036180'
p609
tp610
(lp611
S'30032370'
p612
as(S'caoweiquan322'
p613
S'30036426'
p614
tp615
(lp616
S'30041733'
p617
aS'30041734'
p618
aS'30041735'
p619
aS'30039535'
p620
as(S'Standlove'
p621
S'30034664'
p622
tp623
(lp624
S'30017758'
p625
aS'30018051'
p626
aS'30005914'
p627
aS'30006026'
p628
aS'30006027'
p629
aS'30015490'
p630
aS'30015830'
p631
aS'30039122'
p632
aS'30009692'
p633
aS'30009698'
p634
aS'30011321'
p635
aS'30009535'
p636
aS'30009537'
p637
aS'30009538'
p638
aS'30009684'
p639
aS'30009153'
p640
aS'30009157'
p641
aS'30009159'
p642
aS'30009166'
p643
aS'30009168'
p644
aS'30009170'
p645
aS'30009172'
p646
aS'30009174'
p647
aS'30009178'
p648
aS'30007330'
p649
aS'30006094'
p650
aS'30007632'
p651
aS'30007692'
p652
aS'30007815'
p653
aS'30017393'
p654
aS'30017951'
p655
aS'30018270'
p656
aS'30018282'
p657
aS'30024651'
p658
aS'30025650'
p659
aS'30026052'
p660
aS'30010969'
p661
aS'30011480'
p662
as(S'yedtoss'
p663
S'30036426'
p664
tp665
(lp666
S'30035803'
p667
aS'30036200'
p668
aS'30047112'
p669
aS'30041734'
p670
aS'30039535'
p671
aS'30049447'
p672
as(S'zsudraco'
p673
S'30035148'
p674
tp675
(lp676
S'30006903'
p677
aS'30005518'
p678
aS'30005612'
p679
aS'30005614'
p680
aS'30005747'
p681
aS'30007471'
p682
aS'30031526'
p683
aS'30031532'
p684
aS'30049390'
p685
aS'30049815'
p686
aS'30050164'
p687
aS'30018463'
p688
aS'30024966'
p689
aS'30023208'
p690
aS'30026094'
p691
aS'30026096'
p692
aS'30026098'
p693
aS'30005823'
p694
aS'30006300'
p695
aS'30027695'
p696
aS'30027696'
p697
aS'30027259'
p698
aS'30027261'
p699
aS'30027267'
p700
aS'30013581'
p701
aS'30028980'
p702
aS'30031457'
p703
aS'30046430'
p704
aS'30019359'
p705
aS'30024590'
p706
aS'30025301'
p707
aS'30028298'
p708
aS'30023839'
p709
aS'30027302'
p710
aS'30027306'
p711
aS'30029881'
p712
as(S'caoweiquan322'
p713
S'30038691'
p714
tp715
(lp716
S'30041733'
p717
aS'30041734'
p718
aS'30041735'
p719
aS'30039535'
p720
as(S'sri02'
p721
S'30033370'
p722
tp723
(lp724
S'30034432'
p725
as(S'svenson'
p726
S'30035987'
p727
tp728
(lp729
S'30033167'
p730
aS'30027726'
p731
aS'30027728'
p732
aS'30028978'
p733
as(S'yedtoss'
p734
S'30035987'
p735
tp736
(lp737
S'30035803'
p738
aS'30036200'
p739
aS'30047112'
p740
aS'30041734'
p741
aS'30039535'
p742
aS'30049447'
p743
as(S'argolite'
p744
S'30035695'
p745
tp746
(lp747
S'30027739'
p748
aS'30029618'
p749
aS'30006792'
p750
aS'30005518'
p751
aS'30007354'
p752
aS'30007438'
p753
aS'30008127'
p754
aS'30027518'
p755
aS'30031528'
p756
aS'30031534'
p757
aS'30031536'
p758
aS'30031600'
p759
aS'30032020'
p760
aS'30032022'
p761
aS'30032180'
p762
aS'30032184'
p763
aS'30032243'
p764
aS'30006496'
p765
aS'30006851'
p766
aS'30006810'
p767
aS'30006811'
p768
aS'30049390'
p769
aS'30049815'
p770
aS'30005644'
p771
aS'30005929'
p772
aS'30011185'
p773
aS'30011564'
p774
aS'30011568'
p775
aS'30011579'
p776
aS'30011592'
p777
aS'30011612'
p778
aS'30011615'
p779
aS'30011714'
p780
aS'30011720'
p781
aS'30011726'
p782
aS'30011729'
p783
aS'30011826'
p784
aS'30011828'
p785
aS'30011830'
p786
aS'30012149'
p787
aS'30012151'
p788
aS'30012154'
p789
aS'30012157'
p790
aS'30012160'
p791
aS'30033428'
p792
aS'30034496'
p793
aS'30018462'
p794
aS'30018463'
p795
aS'30025476'
p796
aS'30025478'
p797
aS'30026925'
p798
aS'30026927'
p799
aS'30026940'
p800
aS'30027297'
p801
aS'30035183'
p802
aS'30036225'
p803
aS'30025257'
p804
aS'30025259'
p805
aS'30025509'
p806
aS'30025531'
p807
aS'30026505'
p808
aS'30026507'
p809
aS'30034439'
p810
aS'30042811'
p811
aS'30043014'
p812
aS'30012954'
p813
aS'30014031'
p814
aS'30014331'
p815
aS'30014498'
p816
aS'30014504'
p817
aS'30014535'
p818
aS'30014596'
p819
aS'30014599'
p820
aS'30012957'
p821
aS'30014013'
p822
aS'30014576'
p823
aS'30005823'
p824
aS'30006028'
p825
aS'30008660'
p826
aS'30026290'
p827
aS'30027696'
p828
aS'30013964'
p829
aS'30031767'
p830
aS'30008629'
p831
aS'30009874'
p832
aS'30015830'
p833
aS'30016446'
p834
aS'30016545'
p835
aS'30030344'
p836
aS'30030348'
p837
aS'30030905'
p838
aS'30031056'
p839
aS'30031303'
p840
aS'30026405'
p841
aS'30027261'
p842
aS'30027265'
p843
aS'30027269'
p844
aS'30027271'
p845
aS'30031139'
p846
aS'30031141'
p847
aS'30009280'
p848
aS'30009533'
p849
aS'30009538'
p850
aS'30009813'
p851
aS'30007250'
p852
aS'30007310'
p853
aS'30007314'
p854
aS'30007330'
p855
aS'30007408'
p856
aS'30007419'
p857
aS'30028980'
p858
aS'30028981'
p859
aS'30025002'
p860
aS'30019359'
p861
aS'30023203'
p862
aS'30025337'
p863
aS'30021882'
p864
aS'30019816'
p865
aS'30019817'
p866
aS'30014859'
p867
aS'30014119'
p868
aS'30006333'
p869
aS'30006264'
p870
aS'30006220'
p871
aS'30006363'
p872
aS'30006508'
p873
aS'30028361'
p874
aS'30031461'
p875
aS'30017081'
p876
aS'30017573'
p877
aS'30017575'
p878
aS'30017678'
p879
aS'30017702'
p880
aS'30017000'
p881
aS'30023773'
p882
aS'30023833'
p883
aS'30024419'
p884
aS'30025243'
p885
aS'30025636'
p886
aS'30027163'
p887
aS'30027305'
p888
aS'30027306'
p889
aS'30029974'
p890
aS'30029884'
p891
aS'30012062'
p892
as(S'yjyfrombnu'
p893
S'30035184'
p894
tp895
(lp896
s(S'JackieW'
p897
S'30033372'
p898
tp899
(lp900
S'30027274'
p901
as(S'agus.mw'
p902
S'30035050'
p903
tp904
(lp905
s(S'faeton'
p906
S'30035149'
p907
tp908
(lp909
S'30008020'
p910
aS'30026893'
p911
aS'30029911'
p912
aS'30035805'
p913
aS'30045653'
p914
aS'30008662'
p915
aS'30027712'
p916
aS'30027714'
p917
aS'30027716'
p918
aS'30008630'
p919
aS'30008632'
p920
aS'30008634'
p921
aS'30030344'
p922
aS'30031056'
p923
aS'30028298'
p924
aS'30006297'
p925
aS'30008319'
p926
aS'30008350'
p927
aS'30018158'
p928
as(S'albertwang'
p929
S'30036123'
p930
tp931
(lp932
S'30025947'
p933
aS'30027073'
p934
aS'30049390'
p935
aS'30050164'
p936
aS'30033425'
p937
aS'30025478'
p938
aS'30026925'
p939
aS'30029304'
p940
aS'30031428'
p941
aS'30031832'
p942
aS'30025533'
p943
aS'30031104'
p944
aS'30028780'
p945
aS'30028975'
p946
aS'30030837'
p947
aS'30031129'
p948
aS'30025318'
p949
aS'30046428'
p950
aS'30019358'
p951
aS'30043038'
p952
aS'30043216'
p953
aS'30032407'
p954
aS'30028358'
p955
aS'30028361'
p956
aS'30030909'
p957
aS'30023840'
p958
as(S'cubic_a'
p959
S'30035619'
p960
tp961
(lp962
S'30048346'
p963
as(S'zsudraco'
p964
S'30034665'
p965
tp966
(lp967
S'30006903'
p968
aS'30005518'
p969
aS'30005612'
p970
aS'30005614'
p971
aS'30005747'
p972
aS'30007471'
p973
aS'30031526'
p974
aS'30031532'
p975
aS'30049390'
p976
aS'30049815'
p977
aS'30050164'
p978
aS'30018463'
p979
aS'30024966'
p980
aS'30023208'
p981
aS'30026094'
p982
aS'30026096'
p983
aS'30026098'
p984
aS'30005823'
p985
aS'30006300'
p986
aS'30027695'
p987
aS'30027696'
p988
aS'30027259'
p989
aS'30027261'
p990
aS'30027267'
p991
aS'30013581'
p992
aS'30028980'
p993
aS'30031457'
p994
aS'30046430'
p995
aS'30019359'
p996
aS'30024590'
p997
aS'30025301'
p998
aS'30028298'
p999
aS'30023839'
p1000
aS'30027302'
p1001
aS'30027306'
p1002
aS'30029881'
p1003
as(S'andresduque'
p1004
S'30035619'
p1005
tp1006
(lp1007
S'30007511'
p1008
aS'30019405'
p1009
aS'30031048'
p1010
aS'30024514'
p1011
aS'30012146'
p1012
as(S'dualfitting'
p1013
S'30035187'
p1014
tp1015
(lp1016
s(S'demo.b'
p1017
S'30033394'
p1018
tp1019
(lp1020
s(S'vvvpig'
p1021
S'30035809'
p1022
tp1023
(lp1024
S'30028017'
p1025
aS'30033429'
p1026
aS'30033430'
p1027
aS'30033432'
p1028
aS'30034474'
p1029
aS'30034498'
p1030
aS'30034501'
p1031
aS'30034997'
p1032
aS'30035833'
p1033
aS'30036163'
p1034
aS'30036296'
p1035
aS'30036329'
p1036
aS'30038186'
p1037
aS'30031580'
p1038
aS'30031683'
p1039
aS'30031945'
p1040
aS'30031946'
p1041
aS'30031978'
p1042
aS'30032160'
p1043
aS'30027776'
p1044
aS'30031840'
p1045
aS'30032081'
p1046
aS'30041212'
p1047
aS'30042127'
p1048
aS'30026054'
p1049
aS'30027190'
p1050
aS'30028301'
p1051
aS'30030964'
p1052
aS'30023180'
p1053
aS'30024010'
p1054
aS'30024011'
p1055
aS'30024560'
p1056
aS'30025631'
p1057
aS'30026307'
p1058
aS'30026371'
p1059
aS'30026374'
p1060
aS'30026375'
p1061
as(S'albertwang'
p1062
S'30034948'
p1063
tp1064
(lp1065
S'30025947'
p1066
aS'30027073'
p1067
aS'30049390'
p1068
aS'30050164'
p1069
aS'30033425'
p1070
aS'30025478'
p1071
aS'30026925'
p1072
aS'30029304'
p1073
aS'30031428'
p1074
aS'30031832'
p1075
aS'30025533'
p1076
aS'30031104'
p1077
aS'30028780'
p1078
aS'30028975'
p1079
aS'30030837'
p1080
aS'30031129'
p1081
aS'30025318'
p1082
aS'30046428'
p1083
aS'30019358'
p1084
aS'30043038'
p1085
aS'30043216'
p1086
aS'30032407'
p1087
aS'30028358'
p1088
aS'30028361'
p1089
aS'30030909'
p1090
aS'30023840'
p1091
as(S'caoweiquan322'
p1092
S'30035050'
p1093
tp1094
(lp1095
S'30041733'
p1096
aS'30041734'
p1097
aS'30041735'
p1098
aS'30039535'
p1099
as(S'sin_hu'
p1100
S'30035184'
p1101
tp1102
(lp1103
S'30025943'
p1104
aS'30028586'
p1105
aS'30036099'
p1106
aS'30032598'
p1107
aS'30029098'
p1108
aS'30033645'
p1109
aS'30027254'
p1110
aS'30028979'
p1111
aS'30048395'
p1112
aS'30025322'
p1113
aS'30029880'
p1114
as(S'oipn4e2'
p1115
S'30035187'
p1116
tp1117
(lp1118
s(S'galeri'
p1119
S'30035517'
p1120
tp1121
(lp1122
s(S'argolite'
p1123
S'30033371'
p1124
tp1125
(lp1126
S'30027739'
p1127
aS'30029618'
p1128
aS'30006792'
p1129
aS'30005518'
p1130
aS'30007354'
p1131
aS'30007438'
p1132
aS'30008127'
p1133
aS'30027518'
p1134
aS'30031528'
p1135
aS'30031534'
p1136
aS'30031536'
p1137
aS'30031600'
p1138
aS'30032020'
p1139
aS'30032022'
p1140
aS'30032180'
p1141
aS'30032184'
p1142
aS'30032243'
p1143
aS'30006496'
p1144
aS'30006851'
p1145
aS'30006810'
p1146
aS'30006811'
p1147
aS'30049390'
p1148
aS'30049815'
p1149
aS'30005644'
p1150
aS'30005929'
p1151
aS'30011185'
p1152
aS'30011564'
p1153
aS'30011568'
p1154
aS'30011579'
p1155
aS'30011592'
p1156
aS'30011612'
p1157
aS'30011615'
p1158
aS'30011714'
p1159
aS'30011720'
p1160
aS'30011726'
p1161
aS'30011729'
p1162
aS'30011826'
p1163
aS'30011828'
p1164
aS'30011830'
p1165
aS'30012149'
p1166
aS'30012151'
p1167
aS'30012154'
p1168
aS'30012157'
p1169
aS'30012160'
p1170
aS'30033428'
p1171
aS'30034496'
p1172
aS'30018462'
p1173
aS'30018463'
p1174
aS'30025476'
p1175
aS'30025478'
p1176
aS'30026925'
p1177
aS'30026927'
p1178
aS'30026940'
p1179
aS'30027297'
p1180
aS'30035183'
p1181
aS'30036225'
p1182
aS'30025257'
p1183
aS'30025259'
p1184
aS'30025509'
p1185
aS'30025531'
p1186
aS'30026505'
p1187
aS'30026507'
p1188
aS'30034439'
p1189
aS'30042811'
p1190
aS'30043014'
p1191
aS'30012954'
p1192
aS'30014031'
p1193
aS'30014331'
p1194
aS'30014498'
p1195
aS'30014504'
p1196
aS'30014535'
p1197
aS'30014596'
p1198
aS'30014599'
p1199
aS'30012957'
p1200
aS'30014013'
p1201
aS'30014576'
p1202
aS'30005823'
p1203
aS'30006028'
p1204
aS'30008660'
p1205
aS'30026290'
p1206
aS'30027696'
p1207
aS'30013964'
p1208
aS'30031767'
p1209
aS'30008629'
p1210
aS'30009874'
p1211
aS'30015830'
p1212
aS'30016446'
p1213
aS'30016545'
p1214
aS'30030344'
p1215
aS'30030348'
p1216
aS'30030905'
p1217
aS'30031056'
p1218
aS'30031303'
p1219
aS'30026405'
p1220
aS'30027261'
p1221
aS'30027265'
p1222
aS'30027269'
p1223
aS'30027271'
p1224
aS'30031139'
p1225
aS'30031141'
p1226
aS'30009280'
p1227
aS'30009533'
p1228
aS'30009538'
p1229
aS'30009813'
p1230
aS'30007250'
p1231
aS'30007310'
p1232
aS'30007314'
p1233
aS'30007330'
p1234
aS'30007408'
p1235
aS'30007419'
p1236
aS'30028980'
p1237
aS'30028981'
p1238
aS'30025002'
p1239
aS'30019359'
p1240
aS'30023203'
p1241
aS'30025337'
p1242
aS'30021882'
p1243
aS'30019816'
p1244
aS'30019817'
p1245
aS'30014859'
p1246
aS'30014119'
p1247
aS'30006333'
p1248
aS'30006264'
p1249
aS'30006220'
p1250
aS'30006363'
p1251
aS'30006508'
p1252
aS'30028361'
p1253
aS'30031461'
p1254
aS'30017081'
p1255
aS'30017573'
p1256
aS'30017575'
p1257
aS'30017678'
p1258
aS'30017702'
p1259
aS'30017000'
p1260
aS'30023773'
p1261
aS'30023833'
p1262
aS'30024419'
p1263
aS'30025243'
p1264
aS'30025636'
p1265
aS'30027163'
p1266
aS'30027305'
p1267
aS'30027306'
p1268
aS'30029974'
p1269
aS'30029884'
p1270
aS'30012062'
p1271
as(S'andvp'
p1272
S'30036180'
p1273
tp1274
(lp1275
s(S'flying2hk'
p1276
S'30035148'
p1277
tp1278
(lp1279
S'30018463'
p1280
aS'30015810'
p1281
aS'30024515'
p1282
aS'30024517'
p1283
aS'30032433'
p1284
aS'30032434'
p1285
aS'30007113'
p1286
aS'30007279'
p1287
aS'30018200'
p1288
aS'30018202'
p1289
aS'30018204'
p1290
aS'30013154'
p1291
aS'30013161'
p1292
as(S'dileepa'
p1293
S'30035619'
p1294
tp1295
(lp1296
S'30028182'
p1297
aS'30033561'
p1298
aS'30022835'
p1299
aS'30025289'
p1300
aS'30019357'
p1301
aS'30031920'
p1302
aS'30029880'
p1303
aS'30031892'
p1304
as(S'Standlove'
p1305
S'30034947'
p1306
tp1307
(lp1308
S'30017758'
p1309
aS'30018051'
p1310
aS'30005914'
p1311
aS'30006026'
p1312
aS'30006027'
p1313
aS'30015490'
p1314
aS'30015830'
p1315
aS'30039122'
p1316
aS'30009692'
p1317
aS'30009698'
p1318
aS'30011321'
p1319
aS'30009535'
p1320
aS'30009537'
p1321
aS'30009538'
p1322
aS'30009684'
p1323
aS'30009153'
p1324
aS'30009157'
p1325
aS'30009159'
p1326
aS'30009166'
p1327
aS'30009168'
p1328
aS'30009170'
p1329
aS'30009172'
p1330
aS'30009174'
p1331
aS'30009178'
p1332
aS'30007330'
p1333
aS'30006094'
p1334
aS'30007632'
p1335
aS'30007692'
p1336
aS'30007815'
p1337
aS'30017393'
p1338
aS'30017951'
p1339
aS'30018270'
p1340
aS'30018282'
p1341
aS'30024651'
p1342
aS'30025650'
p1343
aS'30026052'
p1344
aS'30010969'
p1345
aS'30011480'
p1346
as(S'Luca'
p1347
S'30033394'
p1348
tp1349
(lp1350
S'30006903'
p1351
aS'30005611'
p1352
aS'30005612'
p1353
aS'30034439'
p1354
aS'30038930'
p1355
aS'30039133'
p1356
aS'30030162'
p1357
aS'30025189'
p1358
aS'30025110'
p1359
aS'30019816'
p1360
aS'30019817'
p1361
aS'30007024'
p1362
aS'30032033'
p1363
aS'30032148'
p1364
as(S'youdoo'
p1365
S'30035618'
p1366
tp1367
(lp1368
s(S'agus.mw'
p1369
S'30036180'
p1370
tp1371
(lp1372
s(S'woodjhon'
p1373
S'30033859'
p1374
tp1375
(lp1376
S'30006903'
p1377
aS'30006991'
p1378
aS'30006992'
p1379
aS'30007161'
p1380
aS'30007438'
p1381
aS'30032078'
p1382
aS'30032182'
p1383
aS'30024968'
p1384
aS'30024971'
p1385
aS'30025093'
p1386
aS'30026893'
p1387
aS'30026925'
p1388
aS'30018662'
p1389
aS'30023740'
p1390
aS'30024357'
p1391
aS'30024359'
p1392
aS'30008890'
p1393
aS'30029681'
p1394
aS'30031109'
p1395
aS'30015689'
p1396
aS'30015701'
p1397
aS'30031769'
p1398
aS'30008630'
p1399
aS'30008632'
p1400
aS'30008634'
p1401
aS'30030346'
p1402
aS'30030348'
p1403
aS'30027259'
p1404
aS'30031137'
p1405
aS'30031141'
p1406
aS'30009692'
p1407
aS'30009698'
p1408
aS'30009535'
p1409
aS'30009537'
p1410
aS'30009538'
p1411
aS'30009153'
p1412
aS'30009157'
p1413
aS'30009166'
p1414
aS'30009168'
p1415
aS'30009170'
p1416
aS'30009172'
p1417
aS'30009174'
p1418
aS'30009176'
p1419
aS'30007310'
p1420
aS'30007314'
p1421
aS'30007331'
p1422
aS'30030438'
p1423
aS'30030504'
p1424
aS'30030542'
p1425
aS'30019367'
p1426
aS'30019371'
p1427
aS'30019375'
p1428
aS'30019377'
p1429
aS'30019379'
p1430
aS'30019381'
p1431
aS'30024472'
p1432
aS'30024517'
p1433
aS'30024050'
p1434
aS'30024056'
p1435
aS'30024217'
p1436
aS'30007111'
p1437
aS'30007123'
p1438
aS'30007276'
p1439
aS'30007279'
p1440
aS'30007288'
p1441
aS'30007289'
p1442
aS'30007292'
p1443
aS'30017571'
p1444
aS'30017577'
p1445
aS'30017700'
p1446
aS'30018202'
p1447
aS'30018206'
p1448
aS'30018208'
p1449
aS'30018271'
p1450
aS'30018275'
p1451
aS'30018277'
p1452
aS'30018279'
p1453
aS'30030028'
p1454
aS'30030032'
p1455
aS'30031028'
p1456
aS'30031128'
p1457
aS'30031565'
p1458
as(S'agus.mw'
p1459
S'30035517'
p1460
tp1461
(lp1462
s(S'vvvpig'
p1463
S'30035512'
p1464
tp1465
(lp1466
S'30028017'
p1467
aS'30033429'
p1468
aS'30033430'
p1469
aS'30033432'
p1470
aS'30034474'
p1471
aS'30034498'
p1472
aS'30034501'
p1473
aS'30034997'
p1474
aS'30035833'
p1475
aS'30036163'
p1476
aS'30036296'
p1477
aS'30036329'
p1478
aS'30038186'
p1479
aS'30031580'
p1480
aS'30031683'
p1481
aS'30031945'
p1482
aS'30031946'
p1483
aS'30031978'
p1484
aS'30032160'
p1485
aS'30027776'
p1486
aS'30031840'
p1487
aS'30032081'
p1488
aS'30041212'
p1489
aS'30042127'
p1490
aS'30026054'
p1491
aS'30027190'
p1492
aS'30028301'
p1493
aS'30030964'
p1494
aS'30023180'
p1495
aS'30024010'
p1496
aS'30024011'
p1497
aS'30024560'
p1498
aS'30025631'
p1499
aS'30026307'
p1500
aS'30026371'
p1501
aS'30026374'
p1502
aS'30026375'
p1503
as(S'caoweiquan322'
p1504
S'30036231'
p1505
tp1506
(lp1507
S'30041733'
p1508
aS'30041734'
p1509
aS'30041735'
p1510
aS'30039535'
p1511
as(S'haipt81'
p1512
S'30035187'
p1513
tp1514
(lp1515
s(S'sparemax'
p1516
S'30033859'
p1517
tp1518
(lp1519
S'30031527'
p1520
aS'30031531'
p1521
aS'30031533'
p1522
aS'30032178'
p1523
aS'30024394'
p1524
aS'30025475'
p1525
aS'30025477'
p1526
aS'30018663'
p1527
aS'30023209'
p1528
aS'30024360'
p1529
aS'30026097'
p1530
aS'30026099'
p1531
aS'30014611'
p1532
aS'30027701'
p1533
aS'30027713'
p1534
aS'30031105'
p1535
aS'30015688'
p1536
aS'30031756'
p1537
aS'30031766'
p1538
aS'30031057'
p1539
aS'30027260'
p1540
aS'30027262'
p1541
aS'30027264'
p1542
aS'30027266'
p1543
aS'30027268'
p1544
aS'30007407'
p1545
aS'30007470'
p1546
aS'30030439'
p1547
aS'30031458'
p1548
aS'30025868'
p1549
aS'30019366'
p1550
aS'30019368'
p1551
aS'30019370'
p1552
aS'30019380'
p1553
aS'30019382'
p1554
aS'30024491'
p1555
aS'30025111'
p1556
aS'30025300'
p1557
aS'30025302'
p1558
aS'30025304'
p1559
aS'30028301'
p1560
aS'30023221'
p1561
aS'30024047'
p1562
aS'30024049'
p1563
aS'30024051'
p1564
aS'30007371'
p1565
aS'30017679'
p1566
aS'30017701'
p1567
aS'30017703'
p1568
aS'30017705'
p1569
aS'30018155'
p1570
aS'30018157'
p1571
aS'30018159'
p1572
aS'30018161'
p1573
aS'30018163'
p1574
aS'30018165'
p1575
aS'30018167'
p1576
aS'30018201'
p1577
aS'30018205'
p1578
aS'30018207'
p1579
aS'30018209'
p1580
aS'30018272'
p1581
aS'30018274'
p1582
aS'30018276'
p1583
aS'30018278'
p1584
aS'30018280'
p1585
aS'30023695'
p1586
aS'30030029'
p1587
aS'30029883'
p1588
aS'30029885'
p1589
as(S'billthu'
p1590
S'30035695'
p1591
tp1592
(lp1593
S'30028835'
p1594
aS'30028840'
p1595
aS'30028842'
p1596
aS'30031945'
p1597
aS'30032015'
p1598
aS'30032025'
p1599
aS'30018566'
p1600
aS'30027699'
p1601
aS'30048609'
p1602
aS'30028299'
p1603
aS'30032408'
p1604
aS'30018620'
p1605
aS'30024600'
p1606
aS'30024661'
p1607
as(S'svenson'
p1608
S'30033859'
p1609
tp1610
(lp1611
S'30033167'
p1612
aS'30027726'
p1613
aS'30027728'
p1614
aS'30028978'
p1615
as(S'shen75'
p1616
S'30035512'
p1617
tp1618
(lp1619
S'30032160'
p1620
aS'30016544'
p1621
aS'30024661'
p1622
aS'30025133'
p1623
aS'30025163'
p1624
aS'30025184'
p1625
aS'30025237'
p1626
aS'30025804'
p1627
aS'30015609'
p1628
aS'30006981'
p1629
aS'30006507'
p1630
aS'30006543'
p1631
aS'30033552'
p1632
aS'30025630'
p1633
aS'30026174'
p1634
aS'30026371'
p1635
aS'30026374'
p1636
as(S'flying2hk'
p1637
S'30035149'
p1638
tp1639
(lp1640
S'30018463'
p1641
aS'30015810'
p1642
aS'30024515'
p1643
aS'30024517'
p1644
aS'30032433'
p1645
aS'30032434'
p1646
aS'30007113'
p1647
aS'30007279'
p1648
aS'30018200'
p1649
aS'30018202'
p1650
aS'30018204'
p1651
aS'30013154'
p1652
aS'30013161'
p1653
as(S'oipn4e2'
p1654
S'30036429'
p1655
tp1656
(lp1657
s(S'albertwang'
p1658
S'30034947'
p1659
tp1660
(lp1661
S'30025947'
p1662
aS'30027073'
p1663
aS'30049390'
p1664
aS'30050164'
p1665
aS'30033425'
p1666
aS'30025478'
p1667
aS'30026925'
p1668
aS'30029304'
p1669
aS'30031428'
p1670
aS'30031832'
p1671
aS'30025533'
p1672
aS'30031104'
p1673
aS'30028780'
p1674
aS'30028975'
p1675
aS'30030837'
p1676
aS'30031129'
p1677
aS'30025318'
p1678
aS'30046428'
p1679
aS'30019358'
p1680
aS'30043038'
p1681
aS'30043216'
p1682
aS'30032407'
p1683
aS'30028358'
p1684
aS'30028361'
p1685
aS'30030909'
p1686
aS'30023840'
p1687
as(S'YiiBryan'
p1688
S'30035618'
p1689
tp1690
(lp1691
S'30034543'
p1692
aS'30022835'
p1693
aS'30048346'
p1694
aS'30048609'
p1695
aS'30023776'
p1696
aS'30017173'
p1697
aS'30018499'
p1698
aS'30026424'
p1699
as(S'YiiBryan'
p1700
S'30036124'
p1701
tp1702
(lp1703
S'30034543'
p1704
aS'30022835'
p1705
aS'30048346'
p1706
aS'30048609'
p1707
aS'30023776'
p1708
aS'30017173'
p1709
aS'30018499'
p1710
aS'30026424'
p1711
as.