(dp0
(S'vvvpig'
p1
S'30028301'
p2
tp3
(lp4
S'30028017'
p5
aS'30033429'
p6
aS'30033430'
p7
aS'30033432'
p8
aS'30034474'
p9
aS'30034498'
p10
aS'30034501'
p11
aS'30034997'
p12
aS'30035833'
p13
aS'30036163'
p14
aS'30036296'
p15
aS'30036329'
p16
aS'30038186'
p17
aS'30031580'
p18
aS'30031683'
p19
aS'30031945'
p20
aS'30031946'
p21
aS'30031978'
p22
aS'30032160'
p23
aS'30027776'
p24
aS'30031840'
p25
aS'30032081'
p26
aS'30033398'
p27
aS'30035512'
p28
aS'30035809'
p29
aS'30035987'
p30
aS'30041212'
p31
aS'30042127'
p32
aS'30026054'
p33
aS'30027190'
p34
aS'30023180'
p35
aS'30024010'
p36
aS'30024011'
p37
aS'30024560'
p38
aS'30025631'
p39
aS'30026307'
p40
aS'30026371'
p41
aS'30026374'
p42
aS'30026375'
p43
as(S'vvvpig'
p44
S'30030964'
p45
tp46
(lp47
S'30028017'
p48
aS'30033429'
p49
aS'30033430'
p50
aS'30033432'
p51
aS'30034474'
p52
aS'30034498'
p53
aS'30034501'
p54
aS'30034997'
p55
aS'30035833'
p56
aS'30036163'
p57
aS'30036296'
p58
aS'30036329'
p59
aS'30038186'
p60
aS'30031580'
p61
aS'30031683'
p62
aS'30031945'
p63
aS'30031946'
p64
aS'30031978'
p65
aS'30032160'
p66
aS'30027776'
p67
aS'30031840'
p68
aS'30032081'
p69
aS'30033398'
p70
aS'30035512'
p71
aS'30035809'
p72
aS'30035987'
p73
aS'30041212'
p74
aS'30042127'
p75
aS'30026054'
p76
aS'30027190'
p77
aS'30023180'
p78
aS'30024010'
p79
aS'30024011'
p80
aS'30024560'
p81
aS'30025631'
p82
aS'30026307'
p83
aS'30026371'
p84
aS'30026374'
p85
aS'30026375'
p86
as(S'iSpartan'
p87
S'30028295'
p88
tp89
(lp90
S'30025941'
p91
aS'30026053'
p92
aS'30025723'
p93
aS'30028774'
p94
aS'30046424'
p95
aS'30026554'
p96
as(S'sparemax'
p97
S'30028301'
p98
tp99
(lp100
S'30031527'
p101
aS'30031531'
p102
aS'30031533'
p103
aS'30032178'
p104
aS'30024394'
p105
aS'30025475'
p106
aS'30025477'
p107
aS'30018663'
p108
aS'30023209'
p109
aS'30024360'
p110
aS'30026097'
p111
aS'30026099'
p112
aS'30014611'
p113
aS'30027701'
p114
aS'30027713'
p115
aS'30031105'
p116
aS'30015688'
p117
aS'30031756'
p118
aS'30031766'
p119
aS'30033859'
p120
aS'30035512'
p121
aS'30031057'
p122
aS'30027260'
p123
aS'30027262'
p124
aS'30027264'
p125
aS'30027266'
p126
aS'30027268'
p127
aS'30007407'
p128
aS'30007470'
p129
aS'30030439'
p130
aS'30031458'
p131
aS'30025868'
p132
aS'30019366'
p133
aS'30019368'
p134
aS'30019370'
p135
aS'30019380'
p136
aS'30019382'
p137
aS'30024491'
p138
aS'30025111'
p139
aS'30025300'
p140
aS'30025302'
p141
aS'30025304'
p142
aS'30023221'
p143
aS'30024047'
p144
aS'30024049'
p145
aS'30024051'
p146
aS'30007371'
p147
aS'30017679'
p148
aS'30017701'
p149
aS'30017703'
p150
aS'30017705'
p151
aS'30018155'
p152
aS'30018157'
p153
aS'30018159'
p154
aS'30018161'
p155
aS'30018163'
p156
aS'30018165'
p157
aS'30018167'
p158
aS'30018201'
p159
aS'30018205'
p160
aS'30018207'
p161
aS'30018209'
p162
aS'30018272'
p163
aS'30018274'
p164
aS'30018276'
p165
aS'30018278'
p166
aS'30018280'
p167
aS'30023695'
p168
aS'30030029'
p169
aS'30029883'
p170
aS'30029885'
p171
as(S'zsudraco'
p172
S'30028298'
p173
tp174
(lp175
S'30006903'
p176
aS'30005518'
p177
aS'30005612'
p178
aS'30005614'
p179
aS'30005747'
p180
aS'30007471'
p181
aS'30031526'
p182
aS'30031532'
p183
aS'30049390'
p184
aS'30049815'
p185
aS'30050164'
p186
aS'30018463'
p187
aS'30024966'
p188
aS'30023208'
p189
aS'30026094'
p190
aS'30026096'
p191
aS'30026098'
p192
aS'30005823'
p193
aS'30006300'
p194
aS'30027695'
p195
aS'30027696'
p196
aS'30034665'
p197
aS'30035148'
p198
aS'30035149'
p199
aS'30027259'
p200
aS'30027261'
p201
aS'30027267'
p202
aS'30013581'
p203
aS'30028980'
p204
aS'30031457'
p205
aS'30046430'
p206
aS'30019359'
p207
aS'30024590'
p208
aS'30025301'
p209
aS'30023839'
p210
aS'30027302'
p211
aS'30027306'
p212
aS'30029881'
p213
as(S'csy2012'
p214
S'30031233'
p215
tp216
(lp217
s(S'hi4sandy'
p218
S'30028299'
p219
tp220
(lp221
S'30034543'
p222
aS'30036099'
p223
aS'30031936'
p224
aS'30032029'
p225
aS'30033561'
p226
aS'30027699'
p227
aS'30035185'
p228
aS'30035619'
p229
aS'30024987'
p230
aS'30028979'
p231
aS'30025289'
p232
aS'30050467'
p233
aS'30026344'
p234
aS'30025322'
p235
aS'30028359'
p236
aS'30031920'
p237
aS'30032490'
p238
as(S'billthu'
p239
S'30028299'
p240
tp241
(lp242
S'30028835'
p243
aS'30028840'
p244
aS'30028842'
p245
aS'30031945'
p246
aS'30032015'
p247
aS'30032025'
p248
aS'30018566'
p249
aS'30027699'
p250
aS'30035695'
p251
aS'30048609'
p252
aS'30032408'
p253
aS'30018620'
p254
aS'30024600'
p255
aS'30024661'
p256
as(S'babyfox'
p257
S'30029353'
p258
tp259
(lp260
S'30028835'
p261
aS'30033591'
p262
aS'30033610'
p263
aS'30018566'
p264
aS'30022361'
p265
aS'30036124'
p266
aS'30019357'
p267
aS'30023776'
p268
aS'30015729'
p269
aS'30017675'
p270
aS'30024650'
p271
aS'30023832'
p272
aS'30026424'
p273
aS'30031892'
p274
aS'30032490'
p275
aS'30013545'
p276
as(S'TrePe'
p277
S'30032657'
p278
tp279
(lp280
s(S'mastraho'
p281
S'30028295'
p282
tp283
(lp284
S'30030915'
p285
aS'30031700'
p286
aS'30030914'
p287
aS'30031400'
p288
aS'30033422'
p289
aS'30031428'
p290
aS'30031832'
p291
aS'30028078'
p292
aS'30007143'
p293
aS'30032404'
p294
aS'30016218'
p295
as(S'hanshuai'
p296
S'30028301'
p297
tp298
(lp299
S'30025868'
p300
aS'30026054'
p301
aS'30026195'
p302
aS'30025279'
p303
aS'30027315'
p304
aS'30023221'
p305
as(S'faeton'
p306
S'30028298'
p307
tp308
(lp309
S'30008020'
p310
aS'30026893'
p311
aS'30029911'
p312
aS'30035805'
p313
aS'30045653'
p314
aS'30008662'
p315
aS'30027712'
p316
aS'30027714'
p317
aS'30027716'
p318
aS'30008630'
p319
aS'30008632'
p320
aS'30008634'
p321
aS'30035149'
p322
aS'30030344'
p323
aS'30031056'
p324
aS'30006297'
p325
aS'30008319'
p326
aS'30008350'
p327
aS'30018158'
p328
as(S'666462'
p329
S'30029353'
p330
tp331
(lp332
S'30028182'
p333
aS'30027254'
p334
as(S'morehappiness'
p335
S'30030964'
p336
tp337
(lp338
S'30007362'
p339
aS'30005787'
p340
aS'30006038'
p341
aS'30034371'
p342
aS'30031945'
p343
aS'30031946'
p344
aS'30031978'
p345
aS'30032028'
p346
aS'30032160'
p347
aS'30032379'
p348
aS'30033821'
p349
aS'30033964'
p350
aS'30033968'
p351
aS'30033970'
p352
aS'30014499'
p353
aS'30014502'
p354
aS'30014014'
p355
aS'30006107'
p356
aS'30027287'
p357
aS'30042127'
p358
aS'30033278'
p359
aS'30034065'
p360
aS'30034244'
p361
aS'30039535'
p362
aS'30014863'
p363
aS'30018453'
p364
aS'30018891'
p365
aS'30023566'
p366
aS'30023645'
p367
aS'30024010'
p368
aS'30024011'
p369
aS'30024030'
p370
aS'30024209'
p371
aS'30025113'
p372
aS'30025248'
p373
aS'30025855'
p374
aS'30025862'
p375
as(S'morehappiness'
p376
S'30031434'
p377
tp378
(lp379
S'30007362'
p380
aS'30005787'
p381
aS'30006038'
p382
aS'30034371'
p383
aS'30031945'
p384
aS'30031946'
p385
aS'30031978'
p386
aS'30032028'
p387
aS'30032160'
p388
aS'30032379'
p389
aS'30033821'
p390
aS'30033964'
p391
aS'30033968'
p392
aS'30033970'
p393
aS'30014499'
p394
aS'30014502'
p395
aS'30014014'
p396
aS'30006107'
p397
aS'30027287'
p398
aS'30042127'
p399
aS'30033278'
p400
aS'30034065'
p401
aS'30034244'
p402
aS'30039535'
p403
aS'30014863'
p404
aS'30018453'
p405
aS'30018891'
p406
aS'30023566'
p407
aS'30023645'
p408
aS'30024010'
p409
aS'30024011'
p410
aS'30024030'
p411
aS'30024209'
p412
aS'30025113'
p413
aS'30025248'
p414
aS'30025855'
p415
aS'30025862'
p416
as(S'TrePe'
p417
S'30032869'
p418
tp419
(lp420
s(S'moulyg'
p421
S'30029353'
p422
tp423
(lp424
S'30049261'
p425
aS'30028779'
p426
aS'30024661'
p427
aS'30025133'
p428
aS'30025163'
p429
aS'30024322'
p430
as(S'TrePe'
p431
S'30031434'
p432
tp433
(lp434
s(S'csy2012'
p435
S'30032657'
p436
tp437
(lp438
s(S'xkhaloda'
p439
S'30028295'
p440
tp441
(lp442
s.