(dp0
(S'yaric_om'
p1
S'30032404'
p2
tp3
(lp4
s(S'LokiYang'
p5
S'30035040'
p6
tp7
(lp8
s(S'wang_liang'
p9
S'30032417'
p10
tp11
(lp12
S'30005963'
p13
aS'30024969'
p14
aS'30006898'
p15
aS'30007023'
p16
aS'30030034'
p17
aS'30013165'
p18
as(S'albertwang'
p19
S'30032407'
p20
tp21
(lp22
S'30025947'
p23
aS'30027073'
p24
aS'30049390'
p25
aS'30050164'
p26
aS'30033425'
p27
aS'30025478'
p28
aS'30026925'
p29
aS'30029304'
p30
aS'30031428'
p31
aS'30031832'
p32
aS'30025533'
p33
aS'30031104'
p34
aS'30028780'
p35
aS'30033371'
p36
aS'30034947'
p37
aS'30034948'
p38
aS'30036123'
p39
aS'30028975'
p40
aS'30030837'
p41
aS'30031129'
p42
aS'30025318'
p43
aS'30046428'
p44
aS'30019358'
p45
aS'30043038'
p46
aS'30043216'
p47
aS'30028358'
p48
aS'30028361'
p49
aS'30030909'
p50
aS'30023840'
p51
as(S'MiG-29'
p52
S'30032404'
p53
tp54
(lp55
S'30005504'
p56
aS'30006563'
p57
aS'30005613'
p58
aS'30007214'
p59
aS'30008233'
p60
aS'30006305'
p61
aS'30006631'
p62
aS'30005644'
p63
aS'30034496'
p64
aS'30018459'
p65
aS'30035183'
p66
aS'30028127'
p67
aS'30028937'
p68
aS'30016392'
p69
aS'30010568'
p70
aS'30010570'
p71
aS'30005691'
p72
aS'30012616'
p73
aS'30024888'
p74
aS'30008440'
p75
aS'30008441'
p76
aS'30006640'
p77
aS'30024760'
p78
aS'30019078'
p79
aS'30013706'
p80
aS'30006056'
p81
aS'30006162'
p82
aS'30016218'
p83
aS'30016900'
p84
aS'30023818'
p85
as(S'flying2hk'
p86
S'30032433'
p87
tp88
(lp89
S'30018463'
p90
aS'30035148'
p91
aS'30035149'
p92
aS'30015810'
p93
aS'30024515'
p94
aS'30024517'
p95
aS'30007113'
p96
aS'30007279'
p97
aS'30018200'
p98
aS'30018202'
p99
aS'30018204'
p100
aS'30013154'
p101
aS'30013161'
p102
as(S'Kaseb'
p103
S'30034476'
p104
tp105
(lp106
S'30007694'
p107
as(S'billthu'
p108
S'30032408'
p109
tp110
(lp111
S'30028835'
p112
aS'30028840'
p113
aS'30028842'
p114
aS'30031945'
p115
aS'30032015'
p116
aS'30032025'
p117
aS'30018566'
p118
aS'30027699'
p119
aS'30035695'
p120
aS'30048609'
p121
aS'30028299'
p122
aS'30018620'
p123
aS'30024600'
p124
aS'30024661'
p125
as(S'LokiYang'
p126
S'30034335'
p127
tp128
(lp129
s(S'flying2hk'
p130
S'30032434'
p131
tp132
(lp133
S'30018463'
p134
aS'30035148'
p135
aS'30035149'
p136
aS'30015810'
p137
aS'30024515'
p138
aS'30024517'
p139
aS'30007113'
p140
aS'30007279'
p141
aS'30018200'
p142
aS'30018202'
p143
aS'30018204'
p144
aS'30013154'
p145
aS'30013161'
p146
as(S'subchap'
p147
S'30032408'
p148
tp149
(lp150
S'30027979'
p151
aS'30027982'
p152
aS'30027987'
p153
aS'30027992'
p154
aS'30027995'
p155
aS'30028840'
p156
aS'30028842'
p157
aS'30029245'
p158
aS'30029280'
p159
aS'30030236'
p160
aS'30030791'
p161
aS'30030814'
p162
aS'30030817'
p163
aS'30031131'
p164
aS'30027201'
p165
as(S'lofzcx'
p166
S'30034477'
p167
tp168
(lp169
s(S'lofzcx'
p170
S'30034476'
p171
tp172
(lp173
s(S'LieutenantRoger'
p174
S'30034476'
p175
tp176
(lp177
S'30018566'
p178
as(S'mastraho'
p179
S'30032404'
p180
tp181
(lp182
S'30030915'
p183
aS'30031700'
p184
aS'30030914'
p185
aS'30031400'
p186
aS'30033422'
p187
aS'30031428'
p188
aS'30031832'
p189
aS'30028078'
p190
aS'30007143'
p191
aS'30028295'
p192
aS'30016218'
p193
as(S'duxiaoyang'
p194
S'30032417'
p195
tp196
(lp197
S'30027988'
p198
aS'30027992'
p199
aS'30030920'
p200
aS'30032583'
p201
aS'30024934'
p202
aS'30019041'
p203
aS'30024275'
p204
aS'30024322'
p205
aS'30023495'
p206
aS'30024011'
p207
aS'30024038'
p208
aS'30025248'
p209
aS'30025855'
p210
aS'30026056'
p211
aS'30026347'
p212
aS'30032314'
p213
aS'30032865'
p214
aS'30017751'
p215
aS'30018159'
p216
as(S'zyz'
p217
S'30034335'
p218
tp219
(lp220
s(S'Kaseb'
p221
S'30032417'
p222
tp223
(lp224
S'30007694'
p225
as(S'wang_liang'
p226
S'30032408'
p227
tp228
(lp229
S'30005963'
p230
aS'30024969'
p231
aS'30006898'
p232
aS'30007023'
p233
aS'30030034'
p234
aS'30013165'
p235
as.