(dp0
(S'sukhoi-30'
p1
S'30014083'
p2
tp3
(lp4
S'30028774'
p5
aS'30015170'
p6
aS'30012600'
p7
aS'30008816'
p8
aS'30013706'
p9
aS'30006056'
p10
aS'30006897'
p11
as(S'the_best'
p12
S'30014390'
p13
tp14
(lp15
S'30006095'
p16
aS'30007122'
p17
as(S'flexme'
p18
S'30015618'
p19
tp20
(lp21
S'30018446'
p22
as(S'clocy'
p23
S'30014982'
p24
tp25
(lp26
s(S'ChristinaLi'
p27
S'30016272'
p28
tp29
(lp30
S'30013374'
p31
aS'30011229'
p32
aS'30012146'
p33
as(S'fedeg'
p34
S'30014083'
p35
tp36
(lp37
S'30024064'
p38
aS'30017171'
p39
aS'30011225'
p40
as(S'babyfox'
p41
S'30015729'
p42
tp43
(lp44
S'30028835'
p45
aS'30033591'
p46
aS'30033610'
p47
aS'30018566'
p48
aS'30022361'
p49
aS'30036124'
p50
aS'30019357'
p51
aS'30023776'
p52
aS'30029353'
p53
aS'30017675'
p54
aS'30024650'
p55
aS'30023832'
p56
aS'30026424'
p57
aS'30031892'
p58
aS'30032490'
p59
aS'30013545'
p60
as(S'rajjoshi'
p61
S'30015609'
p62
tp63
(lp64
s(S'picachui'
p65
S'30013152'
p66
tp67
(lp68
s(S'abkqz'
p69
S'30013152'
p70
tp71
(lp72
S'30011176'
p73
aS'30008817'
p74
aS'30013156'
p75
aS'30013158'
p76
as(S'ChristinaLi'
p77
S'30015729'
p78
tp79
(lp80
S'30013374'
p81
aS'30011229'
p82
aS'30012146'
p83
as(S'iogy'
p84
S'30014389'
p85
tp86
(lp87
S'30008013'
p88
aS'30008017'
p89
aS'30017044'
p90
aS'30010567'
p91
aS'30010569'
p92
aS'30012616'
p93
aS'30009878'
p94
aS'30015170'
p95
aS'30010969'
p96
aS'30011225'
p97
as(S'DanLazar'
p98
S'30013152'
p99
tp100
(lp101
S'30005633'
p102
aS'30007831'
p103
aS'30008018'
p104
aS'30008019'
p105
aS'30008020'
p106
aS'30008036'
p107
aS'30008640'
p108
aS'30034497'
p109
aS'30034432'
p110
aS'30041691'
p111
aS'30014610'
p112
aS'30005913'
p113
aS'30012600'
p114
aS'30008816'
p115
aS'30008440'
p116
aS'30008441'
p117
aS'30006750'
p118
aS'30006877'
p119
aS'30017518'
p120
aS'30007112'
p121
aS'30007288'
p122
aS'30006313'
p123
aS'30018158'
p124
aS'30013154'
p125
as(S'tomaM'
p126
S'30014390'
p127
tp128
(lp129
S'30014031'
p130
aS'30014331'
p131
aS'30014498'
p132
aS'30014501'
p133
aS'30014504'
p134
aS'30014535'
p135
aS'30012957'
p136
aS'30014013'
p137
aS'30014022'
p138
aS'30012061'
p139
aS'30013156'
p140
aS'30013158'
p141
aS'30013165'
p142
as(S'shen75'
p143
S'30015609'
p144
tp145
(lp146
S'30032160'
p147
aS'30035512'
p148
aS'30016544'
p149
aS'30024661'
p150
aS'30025133'
p151
aS'30025163'
p152
aS'30025184'
p153
aS'30025237'
p154
aS'30025804'
p155
aS'30006981'
p156
aS'30006507'
p157
aS'30006543'
p158
aS'30033552'
p159
aS'30025630'
p160
aS'30026174'
p161
aS'30026371'
p162
aS'30026374'
p163
as(S'yaoyaorachel'
p164
S'30015729'
p165
tp166
(lp167
S'30027072'
p168
aS'30031936'
p169
aS'30032025'
p170
aS'30032028'
p171
aS'30032029'
p172
aS'30032160'
p173
aS'30032379'
p174
aS'30033526'
p175
aS'30015811'
p176
aS'30016031'
p177
aS'30031920'
p178
aS'30031892'
p179
as(S'namanhams'
p180
S'30014982'
p181
tp182
(lp183
s(S'sandaruwang'
p184
S'30016272'
p185
tp186
(lp187
S'30017239'
p188
aS'30018003'
p189
aS'30012146'
p190
as(S'BLE'
p191
S'30014083'
p192
tp193
(lp194
S'30027981'
p195
aS'30025945'
p196
aS'30007214'
p197
aS'30007354'
p198
aS'30007438'
p199
aS'30007831'
p200
aS'30008013'
p201
aS'30008021'
p202
aS'30008036'
p203
aS'30008640'
p204
aS'30027071'
p205
aS'30027871'
p206
aS'30030792'
p207
aS'30030793'
p208
aS'30031082'
p209
aS'30006817'
p210
aS'30006832'
p211
aS'30031891'
p212
aS'30031889'
p213
aS'30031890'
p214
aS'30018459'
p215
aS'30035832'
p216
aS'30018450'
p217
aS'30026654'
p218
aS'30017273'
p219
aS'30034438'
p220
aS'30012954'
p221
aS'30027411'
p222
aS'30025723'
p223
aS'30027087'
p224
aS'30015683'
p225
aS'30015687'
p226
aS'30028778'
p227
aS'30015490'
p228
aS'30015806'
p229
aS'30015808'
p230
aS'30015812'
p231
aS'30015830'
p232
aS'30015862'
p233
aS'30015989'
p234
aS'30016545'
p235
aS'30027253'
p236
aS'30027255'
p237
aS'30027256'
p238
aS'30040475'
p239
aS'30006965'
p240
aS'30028769'
p241
aS'30018215'
p242
aS'30024760'
p243
aS'30019287'
p244
aS'30013947'
p245
aS'30014862'
p246
aS'30014866'
p247
aS'30014869'
p248
aS'30015715'
p249
aS'30016402'
p250
aS'30014119'
p251
aS'30016900'
p252
aS'30017081'
p253
aS'30017393'
p254
aS'30017900'
p255
aS'30017923'
p256
aS'30018106'
p257
aS'30017422'
p258
aS'30023817'
p259
aS'30023839'
p260
aS'30025243'
p261
aS'30025366'
p262
aS'30027301'
p263
aS'30012063'
p264
aS'30013165'
p265
aS'30013169'
p266
aS'30013385'
p267
as(S'MonicaMuranyi'
p268
S'30016272'
p269
tp270
(lp271
S'30049625'
p272
aS'30024739'
p273
aS'30019363'
p274
aS'30035500'
p275
as.