(dp0
(S'KLW'
p1
S'30013387'
p2
tp3
(lp4
s(S'minhu'
p5
S'30016352'
p6
tp7
(lp8
S'30015700'
p9
aS'30018270'
p10
as(S'sokol'
p11
S'30013387'
p12
tp13
(lp14
S'30031946'
p15
aS'30015700'
p16
as(S'pinoydream'
p17
S'30015060'
p18
tp19
(lp20
S'30008680'
p21
aS'30010138'
p22
aS'30027277'
p23
as(S'BLE'
p24
S'30013385'
p25
tp26
(lp27
S'30027981'
p28
aS'30025945'
p29
aS'30007214'
p30
aS'30007354'
p31
aS'30007438'
p32
aS'30007831'
p33
aS'30008013'
p34
aS'30008021'
p35
aS'30008036'
p36
aS'30008640'
p37
aS'30027071'
p38
aS'30027871'
p39
aS'30030792'
p40
aS'30030793'
p41
aS'30031082'
p42
aS'30006817'
p43
aS'30006832'
p44
aS'30031891'
p45
aS'30031889'
p46
aS'30031890'
p47
aS'30018459'
p48
aS'30035832'
p49
aS'30018450'
p50
aS'30026654'
p51
aS'30017273'
p52
aS'30034438'
p53
aS'30012954'
p54
aS'30027411'
p55
aS'30025723'
p56
aS'30027087'
p57
aS'30015683'
p58
aS'30015687'
p59
aS'30028778'
p60
aS'30015490'
p61
aS'30015806'
p62
aS'30015808'
p63
aS'30015812'
p64
aS'30015830'
p65
aS'30015862'
p66
aS'30015989'
p67
aS'30016545'
p68
aS'30027253'
p69
aS'30027255'
p70
aS'30027256'
p71
aS'30040475'
p72
aS'30006965'
p73
aS'30028769'
p74
aS'30018215'
p75
aS'30024760'
p76
aS'30019287'
p77
aS'30013947'
p78
aS'30014862'
p79
aS'30014866'
p80
aS'30014869'
p81
aS'30015715'
p82
aS'30016402'
p83
aS'30014083'
p84
aS'30014119'
p85
aS'30016900'
p86
aS'30017081'
p87
aS'30017393'
p88
aS'30017900'
p89
aS'30017923'
p90
aS'30018106'
p91
aS'30017422'
p92
aS'30023817'
p93
aS'30023839'
p94
aS'30025243'
p95
aS'30025366'
p96
aS'30027301'
p97
as(S'SoftwareExpert'
p98
S'30011225'
p99
tp100
(lp101
s(S'tmlshirley'
p102
S'30013155'
p103
tp104
(lp105
s(S'mekanizumu'
p106
S'30013163'
p107
tp108
(lp109
S'30014030'
p110
aS'30014331'
p111
aS'30014498'
p112
aS'30014501'
p113
aS'30014535'
p114
aS'30014596'
p115
aS'30014605'
p116
aS'30016446'
p117
aS'30019360'
p118
aS'30023203'
p119
aS'30024344'
p120
aS'30017000'
p121
aS'30018206'
p122
aS'30018208'
p123
as(S'semi_sleep'
p124
S'30013385'
p125
tp126
(lp127
S'30014603'
p128
aS'30014576'
p129
aS'30014866'
p130
as(S'virose'
p131
S'30011229'
p132
tp133
(lp134
S'30017983'
p135
aS'30036124'
p136
as(S'soso0574'
p137
S'30012067'
p138
tp139
(lp140
S'30007311'
p141
aS'30011342'
p142
aS'30041357'
p143
aS'30029098'
p144
aS'30032029'
p145
aS'30018566'
p146
aS'30022361'
p147
aS'30012674'
p148
aS'30019025'
p149
aS'30007171'
p150
aS'30025289'
p151
aS'30019357'
p152
aS'30025322'
p153
aS'30031258'
p154
aS'30007410'
p155
aS'30007411'
p156
aS'30007424'
p157
aS'30007425'
p158
aS'30017173'
p159
aS'30018499'
p160
aS'30017775'
p161
as(S'KNjonjo'
p162
S'30012146'
p163
tp164
(lp165
s(S'winterflame'
p166
S'30011225'
p167
tp168
(lp169
S'30027981'
p170
aS'30025945'
p171
aS'30008236'
p172
aS'30027871'
p173
aS'30030792'
p174
aS'30006832'
p175
aS'30049610'
p176
aS'30049821'
p177
aS'30050327'
p178
aS'30050581'
p179
aS'30027447'
p180
aS'30035832'
p181
aS'30043098'
p182
aS'30028937'
p183
aS'30029408'
p184
aS'30043390'
p185
aS'30017044'
p186
aS'30017273'
p187
aS'30034438'
p188
aS'30027411'
p189
aS'30027087'
p190
aS'30028778'
p191
aS'30015170'
p192
aS'30015989'
p193
aS'30027253'
p194
aS'30040475'
p195
aS'30013269'
p196
aS'30012869'
p197
aS'30028977'
p198
aS'30019363'
p199
aS'30023802'
p200
aS'30041737'
p201
aS'30018890'
p202
aS'30024822'
p203
aS'30013947'
p204
aS'30015715'
p205
aS'30007280'
p206
aS'30006306'
p207
aS'30006487'
p208
aS'30017571'
p209
aS'30017676'
p210
aS'30017862'
p211
aS'30027301'
p212
aS'30029877'
p213
as(S'sapsaxen'
p214
S'30012064'
p215
tp216
(lp217
s(S'abkqz'
p218
S'30013158'
p219
tp220
(lp221
S'30011176'
p222
aS'30008817'
p223
aS'30013152'
p224
as(S'Beijing2008'
p225
S'30013387'
p226
tp227
(lp228
S'30018201'
p229
as(S'tmlshirley'
p230
S'30013168'
p231
tp232
(lp233
s(S'FireIce'
p234
S'30013158'
p235
tp236
(lp237
S'30015684'
p238
aS'30006362'
p239
aS'30006458'
p240
aS'30006459'
p241
aS'30006569'
p242
aS'30024322'
p243
as(S'quesks'
p244
S'30011229'
p245
tp246
(lp247
S'30009180'
p248
aS'30009410'
p249
aS'30009251'
p250
aS'30009606'
p251
aS'30012674'
p252
aS'30007171'
p253
aS'30007217'
p254
as(S'iogy'
p255
S'30011225'
p256
tp257
(lp258
S'30008013'
p259
aS'30008017'
p260
aS'30017044'
p261
aS'30010567'
p262
aS'30010569'
p263
aS'30012616'
p264
aS'30009878'
p265
aS'30015170'
p266
aS'30014389'
p267
as(S'bgo'
p268
S'30011229'
p269
tp270
(lp271
s(S'akinwale'
p272
S'30013545'
p273
tp274
(lp275
S'30031533'
p276
aS'30029866'
p277
aS'30029868'
p278
as(S'flying2hk'
p279
S'30013161'
p280
tp281
(lp282
S'30018463'
p283
aS'30035148'
p284
aS'30035149'
p285
aS'30015810'
p286
aS'30024515'
p287
aS'30024517'
p288
aS'30032433'
p289
aS'30032434'
p290
aS'30007113'
p291
aS'30007279'
p292
aS'30018200'
p293
aS'30018202'
p294
aS'30018204'
p295
as(S'abkqz'
p296
S'30013156'
p297
tp298
(lp299
S'30011176'
p300
aS'30008817'
p301
aS'30013152'
p302
as(S'tomaM'
p303
S'30013158'
p304
tp305
(lp306
S'30014031'
p307
aS'30014331'
p308
aS'30014498'
p309
aS'30014501'
p310
aS'30014504'
p311
aS'30014535'
p312
aS'30012957'
p313
aS'30014013'
p314
aS'30014022'
p315
aS'30014390'
p316
as(S'iRabbit'
p317
S'30013724'
p318
tp319
(lp320
S'30007133'
p321
aS'30007134'
p322
aS'30009490'
p323
aS'30006980'
p324
as(S'hello-c'
p325
S'30012063'
p326
tp327
(lp328
S'30010568'
p329
aS'30012542'
p330
aS'30012869'
p331
as(S'mekanizumu'
p332
S'30013385'
p333
tp334
(lp335
S'30014030'
p336
aS'30014331'
p337
aS'30014498'
p338
aS'30014501'
p339
aS'30014535'
p340
aS'30014596'
p341
aS'30014605'
p342
aS'30016446'
p343
aS'30019360'
p344
aS'30023203'
p345
aS'30024344'
p346
aS'30017000'
p347
aS'30018206'
p348
aS'30018208'
p349
as(S'Urmass'
p350
S'30013158'
p351
tp352
(lp353
S'30007240'
p354
aS'30005742'
p355
aS'30005744'
p356
aS'30008013'
p357
aS'30006850'
p358
aS'30006810'
p359
aS'30006811'
p360
aS'30024393'
p361
aS'30024971'
p362
aS'30027269'
p363
aS'30031139'
p364
aS'30030440'
p365
aS'30014869'
p366
aS'30006333'
p367
aS'30007126'
p368
as(S'tomaM'
p369
S'30013156'
p370
tp371
(lp372
S'30014031'
p373
aS'30014331'
p374
aS'30014498'
p375
aS'30014501'
p376
aS'30014504'
p377
aS'30014535'
p378
aS'30012957'
p379
aS'30014013'
p380
aS'30014022'
p381
aS'30014390'
p382
as(S'z7oka'
p383
S'30013387'
p384
tp385
(lp386
s(S'quesks'
p387
S'30012067'
p388
tp389
(lp390
S'30009180'
p391
aS'30009410'
p392
aS'30009251'
p393
aS'30009606'
p394
aS'30012674'
p395
aS'30007171'
p396
aS'30007217'
p397
as(S'mumujava'
p398
S'30013168'
p399
tp400
(lp401
S'30007124'
p402
aS'30007278'
p403
aS'30017239'
p404
aS'30017485'
p405
aS'30018045'
p406
aS'30018663'
p407
aS'30014606'
p408
aS'30008888'
p409
aS'30006243'
p410
aS'30006455'
p411
aS'30006568'
p412
as(S'mekanizumu'
p413
S'30012061'
p414
tp415
(lp416
S'30014030'
p417
aS'30014331'
p418
aS'30014498'
p419
aS'30014501'
p420
aS'30014535'
p421
aS'30014596'
p422
aS'30014605'
p423
aS'30016446'
p424
aS'30019360'
p425
aS'30023203'
p426
aS'30024344'
p427
aS'30017000'
p428
aS'30018206'
p429
aS'30018208'
p430
as(S'Urmass'
p431
S'30013156'
p432
tp433
(lp434
S'30007240'
p435
aS'30005742'
p436
aS'30005744'
p437
aS'30008013'
p438
aS'30006850'
p439
aS'30006810'
p440
aS'30006811'
p441
aS'30024393'
p442
aS'30024971'
p443
aS'30027269'
p444
aS'30031139'
p445
aS'30030440'
p446
aS'30014869'
p447
aS'30006333'
p448
aS'30007126'
p449
as(S'minhu'
p450
S'30017711'
p451
tp452
(lp453
S'30015700'
p454
aS'30018270'
p455
as(S'argolite'
p456
S'30012062'
p457
tp458
(lp459
S'30027739'
p460
aS'30029618'
p461
aS'30006792'
p462
aS'30005518'
p463
aS'30007354'
p464
aS'30007438'
p465
aS'30008127'
p466
aS'30027518'
p467
aS'30031528'
p468
aS'30031534'
p469
aS'30031536'
p470
aS'30031600'
p471
aS'30032020'
p472
aS'30032022'
p473
aS'30032180'
p474
aS'30032184'
p475
aS'30032243'
p476
aS'30006496'
p477
aS'30006851'
p478
aS'30006810'
p479
aS'30006811'
p480
aS'30049390'
p481
aS'30049815'
p482
aS'30005644'
p483
aS'30005929'
p484
aS'30011185'
p485
aS'30011564'
p486
aS'30011568'
p487
aS'30011579'
p488
aS'30011592'
p489
aS'30011612'
p490
aS'30011615'
p491
aS'30011714'
p492
aS'30011720'
p493
aS'30011726'
p494
aS'30011729'
p495
aS'30011826'
p496
aS'30011828'
p497
aS'30011830'
p498
aS'30012149'
p499
aS'30012151'
p500
aS'30012154'
p501
aS'30012157'
p502
aS'30012160'
p503
aS'30033428'
p504
aS'30034496'
p505
aS'30018462'
p506
aS'30018463'
p507
aS'30025476'
p508
aS'30025478'
p509
aS'30026925'
p510
aS'30026927'
p511
aS'30026940'
p512
aS'30027297'
p513
aS'30035183'
p514
aS'30036225'
p515
aS'30025257'
p516
aS'30025259'
p517
aS'30025509'
p518
aS'30025531'
p519
aS'30026505'
p520
aS'30026507'
p521
aS'30034439'
p522
aS'30042811'
p523
aS'30043014'
p524
aS'30012954'
p525
aS'30014031'
p526
aS'30014331'
p527
aS'30014498'
p528
aS'30014504'
p529
aS'30014535'
p530
aS'30014596'
p531
aS'30014599'
p532
aS'30012957'
p533
aS'30014013'
p534
aS'30014576'
p535
aS'30005823'
p536
aS'30006028'
p537
aS'30008660'
p538
aS'30026290'
p539
aS'30027696'
p540
aS'30013964'
p541
aS'30031767'
p542
aS'30008629'
p543
aS'30009874'
p544
aS'30033371'
p545
aS'30035695'
p546
aS'30015830'
p547
aS'30016446'
p548
aS'30016545'
p549
aS'30030344'
p550
aS'30030348'
p551
aS'30030905'
p552
aS'30031056'
p553
aS'30031303'
p554
aS'30026405'
p555
aS'30027261'
p556
aS'30027265'
p557
aS'30027269'
p558
aS'30027271'
p559
aS'30031139'
p560
aS'30031141'
p561
aS'30009280'
p562
aS'30009533'
p563
aS'30009538'
p564
aS'30009813'
p565
aS'30007250'
p566
aS'30007310'
p567
aS'30007314'
p568
aS'30007330'
p569
aS'30007408'
p570
aS'30007419'
p571
aS'30028980'
p572
aS'30028981'
p573
aS'30025002'
p574
aS'30019359'
p575
aS'30023203'
p576
aS'30025337'
p577
aS'30021882'
p578
aS'30019816'
p579
aS'30019817'
p580
aS'30014859'
p581
aS'30014119'
p582
aS'30006333'
p583
aS'30006264'
p584
aS'30006220'
p585
aS'30006363'
p586
aS'30006508'
p587
aS'30028361'
p588
aS'30031461'
p589
aS'30017081'
p590
aS'30017573'
p591
aS'30017575'
p592
aS'30017678'
p593
aS'30017702'
p594
aS'30017000'
p595
aS'30023773'
p596
aS'30023833'
p597
aS'30024419'
p598
aS'30025243'
p599
aS'30025636'
p600
aS'30027163'
p601
aS'30027305'
p602
aS'30027306'
p603
aS'30029974'
p604
aS'30029884'
p605
as(S'BLE'
p606
S'30013165'
p607
tp608
(lp609
S'30027981'
p610
aS'30025945'
p611
aS'30007214'
p612
aS'30007354'
p613
aS'30007438'
p614
aS'30007831'
p615
aS'30008013'
p616
aS'30008021'
p617
aS'30008036'
p618
aS'30008640'
p619
aS'30027071'
p620
aS'30027871'
p621
aS'30030792'
p622
aS'30030793'
p623
aS'30031082'
p624
aS'30006817'
p625
aS'30006832'
p626
aS'30031891'
p627
aS'30031889'
p628
aS'30031890'
p629
aS'30018459'
p630
aS'30035832'
p631
aS'30018450'
p632
aS'30026654'
p633
aS'30017273'
p634
aS'30034438'
p635
aS'30012954'
p636
aS'30027411'
p637
aS'30025723'
p638
aS'30027087'
p639
aS'30015683'
p640
aS'30015687'
p641
aS'30028778'
p642
aS'30015490'
p643
aS'30015806'
p644
aS'30015808'
p645
aS'30015812'
p646
aS'30015830'
p647
aS'30015862'
p648
aS'30015989'
p649
aS'30016545'
p650
aS'30027253'
p651
aS'30027255'
p652
aS'30027256'
p653
aS'30040475'
p654
aS'30006965'
p655
aS'30028769'
p656
aS'30018215'
p657
aS'30024760'
p658
aS'30019287'
p659
aS'30013947'
p660
aS'30014862'
p661
aS'30014866'
p662
aS'30014869'
p663
aS'30015715'
p664
aS'30016402'
p665
aS'30014083'
p666
aS'30014119'
p667
aS'30016900'
p668
aS'30017081'
p669
aS'30017393'
p670
aS'30017900'
p671
aS'30017923'
p672
aS'30018106'
p673
aS'30017422'
p674
aS'30023817'
p675
aS'30023839'
p676
aS'30025243'
p677
aS'30025366'
p678
aS'30027301'
p679
as(S'sapsaxen'
p680
S'30012063'
p681
tp682
(lp683
s(S'tomaM'
p684
S'30012061'
p685
tp686
(lp687
S'30014031'
p688
aS'30014331'
p689
aS'30014498'
p690
aS'30014501'
p691
aS'30014504'
p692
aS'30014535'
p693
aS'30012957'
p694
aS'30014013'
p695
aS'30014022'
p696
aS'30014390'
p697
as(S'andresduque'
p698
S'30012146'
p699
tp700
(lp701
S'30007511'
p702
aS'30035619'
p703
aS'30019405'
p704
aS'30031048'
p705
aS'30024514'
p706
as(S'saarixx'
p707
S'30013167'
p708
tp709
(lp710
S'30006991'
p711
aS'30006992'
p712
aS'30007439'
p713
aS'30007471'
p714
aS'30007479'
p715
aS'30007500'
p716
aS'30005929'
p717
aS'30005930'
p718
aS'30025474'
p719
aS'30025476'
p720
aS'30018662'
p721
aS'30023703'
p722
aS'30014031'
p723
aS'30014013'
p724
aS'30006011'
p725
aS'30015683'
p726
aS'30015687'
p727
aS'30015862'
p728
aS'30015864'
p729
aS'30016541'
p730
aS'30016543'
p731
aS'30016545'
p732
aS'30019365'
p733
aS'30019367'
p734
aS'30019371'
p735
aS'30019379'
p736
aS'30019381'
p737
aS'30025110'
p738
aS'30025303'
p739
aS'30025337'
p740
aS'30023220'
p741
aS'30024046'
p742
aS'30024054'
p743
aS'30024056'
p744
aS'30024654'
p745
aS'30006267'
p746
aS'30006457'
p747
aS'30006458'
p748
aS'30006459'
p749
aS'30007126'
p750
aS'30007127'
p751
aS'30006508'
p752
aS'30006509'
p753
aS'30017571'
p754
aS'30017573'
p755
aS'30017575'
p756
aS'30017577'
p757
aS'30017678'
p758
aS'30017700'
p759
aS'30017702'
p760
aS'30017704'
p761
aS'30018154'
p762
aS'30018156'
p763
aS'30018158'
p764
aS'30018160'
p765
aS'30018162'
p766
aS'30018164'
p767
aS'30018166'
p768
aS'30018271'
p769
aS'30018273'
p770
aS'30018275'
p771
aS'30018277'
p772
aS'30018279'
p773
as(S'FireIce'
p774
S'30013156'
p775
tp776
(lp777
S'30015684'
p778
aS'30006362'
p779
aS'30006458'
p780
aS'30006459'
p781
aS'30006569'
p782
aS'30024322'
p783
as(S'FireIce'
p784
S'30013169'
p785
tp786
(lp787
S'30015684'
p788
aS'30006362'
p789
aS'30006458'
p790
aS'30006459'
p791
aS'30006569'
p792
aS'30024322'
p793
as(S'iversonLv'
p794
S'30012067'
p795
tp796
(lp797
S'30008843'
p798
aS'30009410'
p799
aS'30011342'
p800
aS'30012632'
p801
aS'30012674'
p802
aS'30013374'
p803
as(S'BLE'
p804
S'30012063'
p805
tp806
(lp807
S'30027981'
p808
aS'30025945'
p809
aS'30007214'
p810
aS'30007354'
p811
aS'30007438'
p812
aS'30007831'
p813
aS'30008013'
p814
aS'30008021'
p815
aS'30008036'
p816
aS'30008640'
p817
aS'30027071'
p818
aS'30027871'
p819
aS'30030792'
p820
aS'30030793'
p821
aS'30031082'
p822
aS'30006817'
p823
aS'30006832'
p824
aS'30031891'
p825
aS'30031889'
p826
aS'30031890'
p827
aS'30018459'
p828
aS'30035832'
p829
aS'30018450'
p830
aS'30026654'
p831
aS'30017273'
p832
aS'30034438'
p833
aS'30012954'
p834
aS'30027411'
p835
aS'30025723'
p836
aS'30027087'
p837
aS'30015683'
p838
aS'30015687'
p839
aS'30028778'
p840
aS'30015490'
p841
aS'30015806'
p842
aS'30015808'
p843
aS'30015812'
p844
aS'30015830'
p845
aS'30015862'
p846
aS'30015989'
p847
aS'30016545'
p848
aS'30027253'
p849
aS'30027255'
p850
aS'30027256'
p851
aS'30040475'
p852
aS'30006965'
p853
aS'30028769'
p854
aS'30018215'
p855
aS'30024760'
p856
aS'30019287'
p857
aS'30013947'
p858
aS'30014862'
p859
aS'30014866'
p860
aS'30014869'
p861
aS'30015715'
p862
aS'30016402'
p863
aS'30014083'
p864
aS'30014119'
p865
aS'30016900'
p866
aS'30017081'
p867
aS'30017393'
p868
aS'30017900'
p869
aS'30017923'
p870
aS'30018106'
p871
aS'30017422'
p872
aS'30023817'
p873
aS'30023839'
p874
aS'30025243'
p875
aS'30025366'
p876
aS'30027301'
p877
as(S'AleaActaEst'
p878
S'30013165'
p879
tp880
(lp881
S'30029123'
p882
aS'30005534'
p883
aS'30005612'
p884
aS'30005634'
p885
aS'30005747'
p886
aS'30007439'
p887
aS'30007479'
p888
aS'30007500'
p889
aS'30008012'
p890
aS'30008013'
p891
aS'30008015'
p892
aS'30008018'
p893
aS'30008019'
p894
aS'30008020'
p895
aS'30006305'
p896
aS'30006496'
p897
aS'30006609'
p898
aS'30006735'
p899
aS'30031891'
p900
aS'30031889'
p901
aS'30005644'
p902
aS'30005783'
p903
aS'30011564'
p904
aS'30011568'
p905
aS'30011592'
p906
aS'30011714'
p907
aS'30011720'
p908
aS'30011726'
p909
aS'30011729'
p910
aS'30011826'
p911
aS'30011828'
p912
aS'30011830'
p913
aS'30012149'
p914
aS'30012154'
p915
aS'30012157'
p916
aS'30012160'
p917
aS'30036225'
p918
aS'30017044'
p919
aS'30027367'
p920
aS'30028078'
p921
aS'30018083'
p922
aS'30025531'
p923
aS'30042811'
p924
aS'30012957'
p925
aS'30006027'
p926
aS'30012616'
p927
aS'30013964'
p928
aS'30028776'
p929
aS'30029955'
p930
aS'30031763'
p931
aS'30008634'
p932
aS'30009876'
p933
aS'30015810'
p934
aS'30013581'
p935
aS'30013583'
p936
aS'30009280'
p937
aS'30009161'
p938
aS'30009166'
p939
aS'30009170'
p940
aS'30009176'
p941
aS'30006640'
p942
aS'30007143'
p943
aS'30007250'
p944
aS'30028769'
p945
aS'30028975'
p946
aS'30030545'
p947
aS'30024591'
p948
aS'30025303'
p949
aS'30041729'
p950
aS'30017518'
p951
aS'30014119'
p952
aS'30006095'
p953
aS'30007113'
p954
aS'30007119'
p955
aS'30007121'
p956
aS'30007122'
p957
aS'30028354'
p958
aS'30031465'
p959
aS'30017171'
p960
aS'30019152'
p961
as(S'caru'
p962
S'30013385'
p963
tp964
(lp965
S'30005747'
p966
aS'30012151'
p967
aS'30012154'
p968
aS'30012157'
p969
aS'30006029'
p970
aS'30008709'
p971
aS'30008890'
p972
aS'30008630'
p973
aS'30008632'
p974
aS'30008634'
p975
aS'30012600'
p976
aS'30013581'
p977
aS'30013583'
p978
aS'30007310'
p979
aS'30007314'
p980
aS'30007408'
p981
aS'30007419'
p982
aS'30007420'
p983
aS'30018160'
p984
aS'30018200'
p985
as(S'zhch12121'
p986
S'30013545'
p987
tp988
(lp989
s(S'live_world'
p990
S'30015061'
p991
tp992
(lp993
S'30008071'
p994
aS'30010576'
p995
aS'30014032'
p996
aS'30014332'
p997
aS'30014499'
p998
aS'30014502'
p999
aS'30014505'
p1000
aS'30014536'
p1001
aS'30014635'
p1002
aS'30014014'
p1003
aS'30014023'
p1004
aS'30014634'
p1005
aS'30015653'
p1006
as(S'saarixx'
p1007
S'30013169'
p1008
tp1009
(lp1010
S'30006991'
p1011
aS'30006992'
p1012
aS'30007439'
p1013
aS'30007471'
p1014
aS'30007479'
p1015
aS'30007500'
p1016
aS'30005929'
p1017
aS'30005930'
p1018
aS'30025474'
p1019
aS'30025476'
p1020
aS'30018662'
p1021
aS'30023703'
p1022
aS'30014031'
p1023
aS'30014013'
p1024
aS'30006011'
p1025
aS'30015683'
p1026
aS'30015687'
p1027
aS'30015862'
p1028
aS'30015864'
p1029
aS'30016541'
p1030
aS'30016543'
p1031
aS'30016545'
p1032
aS'30019365'
p1033
aS'30019367'
p1034
aS'30019371'
p1035
aS'30019379'
p1036
aS'30019381'
p1037
aS'30025110'
p1038
aS'30025303'
p1039
aS'30025337'
p1040
aS'30023220'
p1041
aS'30024046'
p1042
aS'30024054'
p1043
aS'30024056'
p1044
aS'30024654'
p1045
aS'30006267'
p1046
aS'30006457'
p1047
aS'30006458'
p1048
aS'30006459'
p1049
aS'30007126'
p1050
aS'30007127'
p1051
aS'30006508'
p1052
aS'30006509'
p1053
aS'30017571'
p1054
aS'30017573'
p1055
aS'30017575'
p1056
aS'30017577'
p1057
aS'30017678'
p1058
aS'30017700'
p1059
aS'30017702'
p1060
aS'30017704'
p1061
aS'30018154'
p1062
aS'30018156'
p1063
aS'30018158'
p1064
aS'30018160'
p1065
aS'30018162'
p1066
aS'30018164'
p1067
aS'30018166'
p1068
aS'30018271'
p1069
aS'30018273'
p1070
aS'30018275'
p1071
aS'30018277'
p1072
aS'30018279'
p1073
as(S'biotrail'
p1074
S'30013387'
p1075
tp1076
(lp1077
s(S'mekanizumu'
p1078
S'30013165'
p1079
tp1080
(lp1081
S'30014030'
p1082
aS'30014331'
p1083
aS'30014498'
p1084
aS'30014501'
p1085
aS'30014535'
p1086
aS'30014596'
p1087
aS'30014605'
p1088
aS'30016446'
p1089
aS'30019360'
p1090
aS'30023203'
p1091
aS'30024344'
p1092
aS'30017000'
p1093
aS'30018206'
p1094
aS'30018208'
p1095
as(S'cjie888_tc'
p1096
S'30013155'
p1097
tp1098
(lp1099
S'30007124'
p1100
aS'30007125'
p1101
aS'30007563'
p1102
aS'30007694'
p1103
aS'30014032'
p1104
aS'30014015'
p1105
aS'30014023'
p1106
aS'30007461'
p1107
aS'30007480'
p1108
aS'30006568'
p1109
aS'30017574'
p1110
as(S'gjw99'
p1111
S'30013166'
p1112
tp1113
(lp1114
S'30005637'
p1115
aS'30005791'
p1116
aS'30005814'
p1117
aS'30009456'
p1118
aS'30031533'
p1119
aS'30032178'
p1120
aS'30032181'
p1121
aS'30032185'
p1122
aS'30033737'
p1123
aS'30006832'
p1124
aS'30034066'
p1125
aS'30033196'
p1126
aS'30034507'
p1127
aS'30033198'
p1128
aS'30033352'
p1129
aS'30047404'
p1130
aS'30023741'
p1131
aS'30025258'
p1132
aS'30025530'
p1133
aS'30025532'
p1134
aS'30026095'
p1135
aS'30026097'
p1136
aS'30027262'
p1137
aS'30008674'
p1138
aS'30006918'
p1139
aS'30006980'
p1140
aS'30007280'
p1141
aS'30007281'
p1142
aS'30007282'
p1143
aS'30007283'
p1144
aS'30018155'
p1145
aS'30030513'
p1146
aS'30032085'
p1147
as(S'romanoTC'
p1148
S'30015060'
p1149
tp1150
(lp1151
S'30006025'
p1152
aS'30019523'
p1153
aS'30006108'
p1154
aS'30010506'
p1155
aS'30010589'
p1156
aS'30022362'
p1157
as(S'tomaM'
p1158
S'30013165'
p1159
tp1160
(lp1161
S'30014031'
p1162
aS'30014331'
p1163
aS'30014498'
p1164
aS'30014501'
p1165
aS'30014504'
p1166
aS'30014535'
p1167
aS'30012957'
p1168
aS'30014013'
p1169
aS'30014022'
p1170
aS'30014390'
p1171
as(S'winterflame'
p1172
S'30012064'
p1173
tp1174
(lp1175
S'30027981'
p1176
aS'30025945'
p1177
aS'30008236'
p1178
aS'30027871'
p1179
aS'30030792'
p1180
aS'30006832'
p1181
aS'30049610'
p1182
aS'30049821'
p1183
aS'30050327'
p1184
aS'30050581'
p1185
aS'30027447'
p1186
aS'30035832'
p1187
aS'30043098'
p1188
aS'30028937'
p1189
aS'30029408'
p1190
aS'30043390'
p1191
aS'30017044'
p1192
aS'30017273'
p1193
aS'30034438'
p1194
aS'30027411'
p1195
aS'30027087'
p1196
aS'30028778'
p1197
aS'30015170'
p1198
aS'30015989'
p1199
aS'30027253'
p1200
aS'30040475'
p1201
aS'30013269'
p1202
aS'30012869'
p1203
aS'30028977'
p1204
aS'30019363'
p1205
aS'30023802'
p1206
aS'30041737'
p1207
aS'30018890'
p1208
aS'30024822'
p1209
aS'30013947'
p1210
aS'30015715'
p1211
aS'30007280'
p1212
aS'30006306'
p1213
aS'30006487'
p1214
aS'30017571'
p1215
aS'30017676'
p1216
aS'30017862'
p1217
aS'30027301'
p1218
aS'30029877'
p1219
as(S'quesks'
p1220
S'30012146'
p1221
tp1222
(lp1223
S'30009180'
p1224
aS'30009410'
p1225
aS'30009251'
p1226
aS'30009606'
p1227
aS'30012674'
p1228
aS'30007171'
p1229
aS'30007217'
p1230
as(S'dingying131'
p1231
S'30013387'
p1232
tp1233
(lp1234
s(S'winstips'
p1235
S'30012063'
p1236
tp1237
(lp1238
S'30011185'
p1239
aS'30012151'
p1240
aS'30012160'
p1241
aS'30011233'
p1242
aS'30015806'
p1243
aS'30015808'
p1244
aS'30010024'
p1245
aS'30028980'
p1246
aS'30017380'
p1247
as(S'iversonLv'
p1248
S'30011229'
p1249
tp1250
(lp1251
S'30008843'
p1252
aS'30009410'
p1253
aS'30011342'
p1254
aS'30012632'
p1255
aS'30012674'
p1256
aS'30013374'
p1257
as(S'fedeg'
p1258
S'30011225'
p1259
tp1260
(lp1261
S'30024064'
p1262
aS'30014083'
p1263
aS'30017171'
p1264
as(S'BLE'
p1265
S'30013169'
p1266
tp1267
(lp1268
S'30027981'
p1269
aS'30025945'
p1270
aS'30007214'
p1271
aS'30007354'
p1272
aS'30007438'
p1273
aS'30007831'
p1274
aS'30008013'
p1275
aS'30008021'
p1276
aS'30008036'
p1277
aS'30008640'
p1278
aS'30027071'
p1279
aS'30027871'
p1280
aS'30030792'
p1281
aS'30030793'
p1282
aS'30031082'
p1283
aS'30006817'
p1284
aS'30006832'
p1285
aS'30031891'
p1286
aS'30031889'
p1287
aS'30031890'
p1288
aS'30018459'
p1289
aS'30035832'
p1290
aS'30018450'
p1291
aS'30026654'
p1292
aS'30017273'
p1293
aS'30034438'
p1294
aS'30012954'
p1295
aS'30027411'
p1296
aS'30025723'
p1297
aS'30027087'
p1298
aS'30015683'
p1299
aS'30015687'
p1300
aS'30028778'
p1301
aS'30015490'
p1302
aS'30015806'
p1303
aS'30015808'
p1304
aS'30015812'
p1305
aS'30015830'
p1306
aS'30015862'
p1307
aS'30015989'
p1308
aS'30016545'
p1309
aS'30027253'
p1310
aS'30027255'
p1311
aS'30027256'
p1312
aS'30040475'
p1313
aS'30006965'
p1314
aS'30028769'
p1315
aS'30018215'
p1316
aS'30024760'
p1317
aS'30019287'
p1318
aS'30013947'
p1319
aS'30014862'
p1320
aS'30014866'
p1321
aS'30014869'
p1322
aS'30015715'
p1323
aS'30016402'
p1324
aS'30014083'
p1325
aS'30014119'
p1326
aS'30016900'
p1327
aS'30017081'
p1328
aS'30017393'
p1329
aS'30017900'
p1330
aS'30017923'
p1331
aS'30018106'
p1332
aS'30017422'
p1333
aS'30023817'
p1334
aS'30023839'
p1335
aS'30025243'
p1336
aS'30025366'
p1337
aS'30027301'
p1338
as(S'vangavroche'
p1339
S'30013165'
p1340
tp1341
(lp1342
S'30030915'
p1343
aS'30031700'
p1344
aS'30030914'
p1345
aS'30030912'
p1346
aS'30016950'
p1347
aS'30026153'
p1348
aS'30026940'
p1349
aS'30029872'
p1350
aS'30026655'
p1351
aS'30026657'
p1352
aS'30017758'
p1353
aS'30018083'
p1354
aS'30012954'
p1355
aS'30026290'
p1356
aS'30015685'
p1357
aS'30028776'
p1358
aS'30028781'
p1359
aS'30029955'
p1360
aS'30031398'
p1361
aS'30026405'
p1362
aS'30046429'
p1363
aS'30024590'
p1364
aS'30024591'
p1365
aS'30014862'
p1366
aS'30017921'
p1367
aS'30017924'
p1368
aS'30018661'
p1369
aS'30019152'
p1370
aS'30019386'
p1371
aS'30024801'
p1372
aS'30024803'
p1373
aS'30024823'
p1374
aS'30025251'
p1375
aS'30025541'
p1376
aS'30028853'
p1377
aS'30030839'
p1378
aS'30039311'
p1379
as(S'tmlshirley'
p1380
S'30013157'
p1381
tp1382
(lp1383
s(S'AleaActaEst'
p1384
S'30013544'
p1385
tp1386
(lp1387
S'30029123'
p1388
aS'30005534'
p1389
aS'30005612'
p1390
aS'30005634'
p1391
aS'30005747'
p1392
aS'30007439'
p1393
aS'30007479'
p1394
aS'30007500'
p1395
aS'30008012'
p1396
aS'30008013'
p1397
aS'30008015'
p1398
aS'30008018'
p1399
aS'30008019'
p1400
aS'30008020'
p1401
aS'30006305'
p1402
aS'30006496'
p1403
aS'30006609'
p1404
aS'30006735'
p1405
aS'30031891'
p1406
aS'30031889'
p1407
aS'30005644'
p1408
aS'30005783'
p1409
aS'30011564'
p1410
aS'30011568'
p1411
aS'30011592'
p1412
aS'30011714'
p1413
aS'30011720'
p1414
aS'30011726'
p1415
aS'30011729'
p1416
aS'30011826'
p1417
aS'30011828'
p1418
aS'30011830'
p1419
aS'30012149'
p1420
aS'30012154'
p1421
aS'30012157'
p1422
aS'30012160'
p1423
aS'30036225'
p1424
aS'30017044'
p1425
aS'30027367'
p1426
aS'30028078'
p1427
aS'30018083'
p1428
aS'30025531'
p1429
aS'30042811'
p1430
aS'30012957'
p1431
aS'30006027'
p1432
aS'30012616'
p1433
aS'30013964'
p1434
aS'30028776'
p1435
aS'30029955'
p1436
aS'30031763'
p1437
aS'30008634'
p1438
aS'30009876'
p1439
aS'30015810'
p1440
aS'30013581'
p1441
aS'30013583'
p1442
aS'30009280'
p1443
aS'30009161'
p1444
aS'30009166'
p1445
aS'30009170'
p1446
aS'30009176'
p1447
aS'30006640'
p1448
aS'30007143'
p1449
aS'30007250'
p1450
aS'30028769'
p1451
aS'30028975'
p1452
aS'30030545'
p1453
aS'30024591'
p1454
aS'30025303'
p1455
aS'30041729'
p1456
aS'30017518'
p1457
aS'30014119'
p1458
aS'30006095'
p1459
aS'30007113'
p1460
aS'30007119'
p1461
aS'30007121'
p1462
aS'30007122'
p1463
aS'30028354'
p1464
aS'30031465'
p1465
aS'30017171'
p1466
aS'30019152'
p1467
as(S'AleaActaEst'
p1468
S'30010969'
p1469
tp1470
(lp1471
S'30029123'
p1472
aS'30005534'
p1473
aS'30005612'
p1474
aS'30005634'
p1475
aS'30005747'
p1476
aS'30007439'
p1477
aS'30007479'
p1478
aS'30007500'
p1479
aS'30008012'
p1480
aS'30008013'
p1481
aS'30008015'
p1482
aS'30008018'
p1483
aS'30008019'
p1484
aS'30008020'
p1485
aS'30006305'
p1486
aS'30006496'
p1487
aS'30006609'
p1488
aS'30006735'
p1489
aS'30031891'
p1490
aS'30031889'
p1491
aS'30005644'
p1492
aS'30005783'
p1493
aS'30011564'
p1494
aS'30011568'
p1495
aS'30011592'
p1496
aS'30011714'
p1497
aS'30011720'
p1498
aS'30011726'
p1499
aS'30011729'
p1500
aS'30011826'
p1501
aS'30011828'
p1502
aS'30011830'
p1503
aS'30012149'
p1504
aS'30012154'
p1505
aS'30012157'
p1506
aS'30012160'
p1507
aS'30036225'
p1508
aS'30017044'
p1509
aS'30027367'
p1510
aS'30028078'
p1511
aS'30018083'
p1512
aS'30025531'
p1513
aS'30042811'
p1514
aS'30012957'
p1515
aS'30006027'
p1516
aS'30012616'
p1517
aS'30013964'
p1518
aS'30028776'
p1519
aS'30029955'
p1520
aS'30031763'
p1521
aS'30008634'
p1522
aS'30009876'
p1523
aS'30015810'
p1524
aS'30013581'
p1525
aS'30013583'
p1526
aS'30009280'
p1527
aS'30009161'
p1528
aS'30009166'
p1529
aS'30009170'
p1530
aS'30009176'
p1531
aS'30006640'
p1532
aS'30007143'
p1533
aS'30007250'
p1534
aS'30028769'
p1535
aS'30028975'
p1536
aS'30030545'
p1537
aS'30024591'
p1538
aS'30025303'
p1539
aS'30041729'
p1540
aS'30017518'
p1541
aS'30014119'
p1542
aS'30006095'
p1543
aS'30007113'
p1544
aS'30007119'
p1545
aS'30007121'
p1546
aS'30007122'
p1547
aS'30028354'
p1548
aS'30031465'
p1549
aS'30017171'
p1550
aS'30019152'
p1551
as(S'ChristinaLi'
p1552
S'30011229'
p1553
tp1554
(lp1555
S'30015729'
p1556
aS'30016272'
p1557
aS'30013374'
p1558
as(S'iogy'
p1559
S'30010969'
p1560
tp1561
(lp1562
S'30008013'
p1563
aS'30008017'
p1564
aS'30017044'
p1565
aS'30010567'
p1566
aS'30010569'
p1567
aS'30012616'
p1568
aS'30009878'
p1569
aS'30015170'
p1570
aS'30014389'
p1571
as(S'winterflame'
p1572
S'30012063'
p1573
tp1574
(lp1575
S'30027981'
p1576
aS'30025945'
p1577
aS'30008236'
p1578
aS'30027871'
p1579
aS'30030792'
p1580
aS'30006832'
p1581
aS'30049610'
p1582
aS'30049821'
p1583
aS'30050327'
p1584
aS'30050581'
p1585
aS'30027447'
p1586
aS'30035832'
p1587
aS'30043098'
p1588
aS'30028937'
p1589
aS'30029408'
p1590
aS'30043390'
p1591
aS'30017044'
p1592
aS'30017273'
p1593
aS'30034438'
p1594
aS'30027411'
p1595
aS'30027087'
p1596
aS'30028778'
p1597
aS'30015170'
p1598
aS'30015989'
p1599
aS'30027253'
p1600
aS'30040475'
p1601
aS'30013269'
p1602
aS'30012869'
p1603
aS'30028977'
p1604
aS'30019363'
p1605
aS'30023802'
p1606
aS'30041737'
p1607
aS'30018890'
p1608
aS'30024822'
p1609
aS'30013947'
p1610
aS'30015715'
p1611
aS'30007280'
p1612
aS'30006306'
p1613
aS'30006487'
p1614
aS'30017571'
p1615
aS'30017676'
p1616
aS'30017862'
p1617
aS'30027301'
p1618
aS'30029877'
p1619
as(S'DanLazar'
p1620
S'30013154'
p1621
tp1622
(lp1623
S'30005633'
p1624
aS'30007831'
p1625
aS'30008018'
p1626
aS'30008019'
p1627
aS'30008020'
p1628
aS'30008036'
p1629
aS'30008640'
p1630
aS'30034497'
p1631
aS'30034432'
p1632
aS'30041691'
p1633
aS'30014610'
p1634
aS'30005913'
p1635
aS'30012600'
p1636
aS'30008816'
p1637
aS'30008440'
p1638
aS'30008441'
p1639
aS'30006750'
p1640
aS'30006877'
p1641
aS'30017518'
p1642
aS'30013152'
p1643
aS'30007112'
p1644
aS'30007288'
p1645
aS'30006313'
p1646
aS'30018158'
p1647
as(S'babyfox'
p1648
S'30013545'
p1649
tp1650
(lp1651
S'30028835'
p1652
aS'30033591'
p1653
aS'30033610'
p1654
aS'30018566'
p1655
aS'30022361'
p1656
aS'30036124'
p1657
aS'30019357'
p1658
aS'30023776'
p1659
aS'30029353'
p1660
aS'30015729'
p1661
aS'30017675'
p1662
aS'30024650'
p1663
aS'30023832'
p1664
aS'30026424'
p1665
aS'30031892'
p1666
aS'30032490'
p1667
as(S'tmlshirley'
p1668
S'30013159'
p1669
tp1670
(lp1671
s(S'sandaruwang'
p1672
S'30012146'
p1673
tp1674
(lp1675
S'30017239'
p1676
aS'30016272'
p1677
aS'30018003'
p1678
as(S'utlovey'
p1679
S'30013166'
p1680
tp1681
(lp1682
S'30005653'
p1683
aS'30005654'
p1684
aS'30005713'
p1685
aS'30005772'
p1686
aS'30005798'
p1687
aS'30005814'
p1688
aS'30017239'
p1689
aS'30017909'
p1690
aS'30012955'
p1691
aS'30013941'
p1692
aS'30006422'
p1693
aS'30006423'
p1694
aS'30006499'
p1695
aS'30013584'
p1696
aS'30006568'
p1697
aS'30018003'
p1698
as(S'hello-c'
p1699
S'30012064'
p1700
tp1701
(lp1702
S'30010568'
p1703
aS'30012542'
p1704
aS'30012869'
p1705
as(S'semi_sleep'
p1706
S'30013167'
p1707
tp1708
(lp1709
S'30014603'
p1710
aS'30014576'
p1711
aS'30014866'
p1712
as(S'newstar'
p1713
S'30013387'
p1714
tp1715
(lp1716
S'30009479'
p1717
aS'30015688'
p1718
as(S'moon.river'
p1719
S'30013164'
p1720
tp1721
(lp1722
s(S'tmlshirley'
p1723
S'30013170'
p1724
tp1725
(lp1726
s(S'jcaldwel'
p1727
S'30013724'
p1728
tp1729
(lp1730
s(S'caru'
p1731
S'30013544'
p1732
tp1733
(lp1734
S'30005747'
p1735
aS'30012151'
p1736
aS'30012154'
p1737
aS'30012157'
p1738
aS'30006029'
p1739
aS'30008709'
p1740
aS'30008890'
p1741
aS'30008630'
p1742
aS'30008632'
p1743
aS'30008634'
p1744
aS'30012600'
p1745
aS'30013581'
p1746
aS'30013583'
p1747
aS'30007310'
p1748
aS'30007314'
p1749
aS'30007408'
p1750
aS'30007419'
p1751
aS'30007420'
p1752
aS'30018160'
p1753
aS'30018200'
p1754
as(S'codercola'
p1755
S'30012568'
p1756
tp1757
(lp1758
S'30007355'
p1759
aS'30007696'
p1760
aS'30017758'
p1761
aS'30011233'
p1762
aS'30011236'
p1763
aS'30010569'
p1764
aS'30012600'
p1765
aS'30013269'
p1766
aS'30019287'
p1767
aS'30018890'
p1768
aS'30019478'
p1769
aS'30023517'
p1770
aS'30017676'
p1771
aS'30018106'
p1772
as(S'kurtrips'
p1773
S'30012568'
p1774
tp1775
(lp1776
S'30027986'
p1777
aS'30028019'
p1778
aS'30028020'
p1779
aS'30028021'
p1780
aS'30007074'
p1781
aS'30031083'
p1782
aS'30006811'
p1783
aS'30024359'
p1784
aS'30005913'
p1785
aS'30015701'
p1786
aS'30015812'
p1787
aS'30030344'
p1788
aS'30030346'
p1789
aS'30030905'
p1790
aS'30025318'
p1791
aS'30025319'
p1792
aS'30019816'
p1793
aS'30019817'
p1794
aS'30007119'
p1795
aS'30007122'
p1796
aS'30017921'
p1797
aS'30019152'
p1798
aS'30017929'
p1799
aS'30031028'
p1800
as(S'Kobe24'
p1801
S'30011480'
p1802
tp1803
(lp1804
S'30008233'
p1805
aS'30006698'
p1806
aS'30006735'
p1807
aS'30015864'
p1808
aS'30017900'
p1809
as(S'pvmagacho'
p1810
S'30018054'
p1811
tp1812
(lp1813
S'30014505'
p1814
aS'30013941'
p1815
aS'30014014'
p1816
as(S'utlovey'
p1817
S'30013386'
p1818
tp1819
(lp1820
S'30005653'
p1821
aS'30005654'
p1822
aS'30005713'
p1823
aS'30005772'
p1824
aS'30005798'
p1825
aS'30005814'
p1826
aS'30017239'
p1827
aS'30017909'
p1828
aS'30012955'
p1829
aS'30013941'
p1830
aS'30006422'
p1831
aS'30006423'
p1832
aS'30006499'
p1833
aS'30013584'
p1834
aS'30006568'
p1835
aS'30018003'
p1836
as(S'nomo_kazza'
p1837
S'30013387'
p1838
tp1839
(lp1840
S'30031989'
p1841
as(S'lunarkid'
p1842
S'30011229'
p1843
tp1844
(lp1845
s(S'googlesmkm'
p1846
S'30012146'
p1847
tp1848
(lp1849
S'30009410'
p1850
aS'30017061'
p1851
aS'30012542'
p1852
aS'30012544'
p1853
aS'30013260'
p1854
aS'30024987'
p1855
as(S'Standlove'
p1856
S'30010969'
p1857
tp1858
(lp1859
S'30017758'
p1860
aS'30018051'
p1861
aS'30005914'
p1862
aS'30006026'
p1863
aS'30006027'
p1864
aS'30034664'
p1865
aS'30034665'
p1866
aS'30034947'
p1867
aS'30034948'
p1868
aS'30015490'
p1869
aS'30015830'
p1870
aS'30039122'
p1871
aS'30009692'
p1872
aS'30009698'
p1873
aS'30011321'
p1874
aS'30009535'
p1875
aS'30009537'
p1876
aS'30009538'
p1877
aS'30009684'
p1878
aS'30009153'
p1879
aS'30009157'
p1880
aS'30009159'
p1881
aS'30009166'
p1882
aS'30009168'
p1883
aS'30009170'
p1884
aS'30009172'
p1885
aS'30009174'
p1886
aS'30009178'
p1887
aS'30007330'
p1888
aS'30006094'
p1889
aS'30007632'
p1890
aS'30007692'
p1891
aS'30007815'
p1892
aS'30017393'
p1893
aS'30017951'
p1894
aS'30018270'
p1895
aS'30018282'
p1896
aS'30024651'
p1897
aS'30025650'
p1898
aS'30026052'
p1899
as(S'ChristinaLi'
p1900
S'30012146'
p1901
tp1902
(lp1903
S'30015729'
p1904
aS'30016272'
p1905
aS'30013374'
p1906
as(S'AleaActaEst'
p1907
S'30013167'
p1908
tp1909
(lp1910
S'30029123'
p1911
aS'30005534'
p1912
aS'30005612'
p1913
aS'30005634'
p1914
aS'30005747'
p1915
aS'30007439'
p1916
aS'30007479'
p1917
aS'30007500'
p1918
aS'30008012'
p1919
aS'30008013'
p1920
aS'30008015'
p1921
aS'30008018'
p1922
aS'30008019'
p1923
aS'30008020'
p1924
aS'30006305'
p1925
aS'30006496'
p1926
aS'30006609'
p1927
aS'30006735'
p1928
aS'30031891'
p1929
aS'30031889'
p1930
aS'30005644'
p1931
aS'30005783'
p1932
aS'30011564'
p1933
aS'30011568'
p1934
aS'30011592'
p1935
aS'30011714'
p1936
aS'30011720'
p1937
aS'30011726'
p1938
aS'30011729'
p1939
aS'30011826'
p1940
aS'30011828'
p1941
aS'30011830'
p1942
aS'30012149'
p1943
aS'30012154'
p1944
aS'30012157'
p1945
aS'30012160'
p1946
aS'30036225'
p1947
aS'30017044'
p1948
aS'30027367'
p1949
aS'30028078'
p1950
aS'30018083'
p1951
aS'30025531'
p1952
aS'30042811'
p1953
aS'30012957'
p1954
aS'30006027'
p1955
aS'30012616'
p1956
aS'30013964'
p1957
aS'30028776'
p1958
aS'30029955'
p1959
aS'30031763'
p1960
aS'30008634'
p1961
aS'30009876'
p1962
aS'30015810'
p1963
aS'30013581'
p1964
aS'30013583'
p1965
aS'30009280'
p1966
aS'30009161'
p1967
aS'30009166'
p1968
aS'30009170'
p1969
aS'30009176'
p1970
aS'30006640'
p1971
aS'30007143'
p1972
aS'30007250'
p1973
aS'30028769'
p1974
aS'30028975'
p1975
aS'30030545'
p1976
aS'30024591'
p1977
aS'30025303'
p1978
aS'30041729'
p1979
aS'30017518'
p1980
aS'30014119'
p1981
aS'30006095'
p1982
aS'30007113'
p1983
aS'30007119'
p1984
aS'30007121'
p1985
aS'30007122'
p1986
aS'30028354'
p1987
aS'30031465'
p1988
aS'30017171'
p1989
aS'30019152'
p1990
as(S'jmn'
p1991
S'30013387'
p1992
tp1993
(lp1994
S'30013582'
p1995
aS'30018159'
p1996
as(S'caru'
p1997
S'30013165'
p1998
tp1999
(lp2000
S'30005747'
p2001
aS'30012151'
p2002
aS'30012154'
p2003
aS'30012157'
p2004
aS'30006029'
p2005
aS'30008709'
p2006
aS'30008890'
p2007
aS'30008630'
p2008
aS'30008632'
p2009
aS'30008634'
p2010
aS'30012600'
p2011
aS'30013581'
p2012
aS'30013583'
p2013
aS'30007310'
p2014
aS'30007314'
p2015
aS'30007408'
p2016
aS'30007419'
p2017
aS'30007420'
p2018
aS'30018160'
p2019
aS'30018200'
p2020
as(S'Standlove'
p2021
S'30011480'
p2022
tp2023
(lp2024
S'30017758'
p2025
aS'30018051'
p2026
aS'30005914'
p2027
aS'30006026'
p2028
aS'30006027'
p2029
aS'30034664'
p2030
aS'30034665'
p2031
aS'30034947'
p2032
aS'30034948'
p2033
aS'30015490'
p2034
aS'30015830'
p2035
aS'30039122'
p2036
aS'30009692'
p2037
aS'30009698'
p2038
aS'30011321'
p2039
aS'30009535'
p2040
aS'30009537'
p2041
aS'30009538'
p2042
aS'30009684'
p2043
aS'30009153'
p2044
aS'30009157'
p2045
aS'30009159'
p2046
aS'30009166'
p2047
aS'30009168'
p2048
aS'30009170'
p2049
aS'30009172'
p2050
aS'30009174'
p2051
aS'30009178'
p2052
aS'30007330'
p2053
aS'30006094'
p2054
aS'30007632'
p2055
aS'30007692'
p2056
aS'30007815'
p2057
aS'30017393'
p2058
aS'30017951'
p2059
aS'30018270'
p2060
aS'30018282'
p2061
aS'30024651'
p2062
aS'30025650'
p2063
aS'30026052'
p2064
as(S'jmn'
p2065
S'30013170'
p2066
tp2067
(lp2068
S'30013582'
p2069
aS'30018159'
p2070
as(S'flying2hk'
p2071
S'30013154'
p2072
tp2073
(lp2074
S'30018463'
p2075
aS'30035148'
p2076
aS'30035149'
p2077
aS'30015810'
p2078
aS'30024515'
p2079
aS'30024517'
p2080
aS'30032433'
p2081
aS'30032434'
p2082
aS'30007113'
p2083
aS'30007279'
p2084
aS'30018200'
p2085
aS'30018202'
p2086
aS'30018204'
p2087
as(S'wang_liang'
p2088
S'30013165'
p2089
tp2090
(lp2091
S'30005963'
p2092
aS'30024969'
p2093
aS'30032408'
p2094
aS'30032417'
p2095
aS'30006898'
p2096
aS'30007023'
p2097
aS'30030034'
p2098
as.